	.file	"thttpd.c"
	.text
.Ltext0:
	.section	.text.unlikely,"ax",@progbits
.LCOLDB0:
	.text
.LHOTB0:
	.p2align 4,,15
	.section	.text.unlikely
.Ltext_cold0:
	.text
	.type	handle_hup, @function
handle_hup:
.LFB2:
	.file 1 "src/thttpd.c"
	.loc 1 238 0
	.cfi_startproc
.LVL0:
	.loc 1 247 0
	movl	$1, got_hup
	ret
	.cfi_endproc
.LFE2:
	.size	handle_hup, .-handle_hup
	.section	.text.unlikely
.LCOLDE0:
	.text
.LHOTE0:
	.section	.rodata.str1.4,"aMS",@progbits,1
	.align 4
.LC1:
	.string	"  thttpd - %ld connections (%g/sec), %d max simultaneous, %lld bytes (%g/sec), %d httpd_conns allocated"
	.section	.text.unlikely
.LCOLDB3:
	.text
.LHOTB3:
	.p2align 4,,15
	.type	thttpd_logstats, @function
thttpd_logstats:
.LFB33:
	.loc 1 2179 0
	.cfi_startproc
.LVL1:
	subl	$28, %esp
	.cfi_def_cfa_offset 32
	.loc 1 2180 0
	testl	%eax, %eax
	jle	.L3
	movl	%eax, 12(%esp)
	.loc 1 2181 0
	subl	$4, %esp
	.cfi_def_cfa_offset 36
	movl	stats_bytes, %eax
.LVL2:
	.loc 1 2185 0
	fildl	16(%esp)
	.loc 1 2181 0
	pushl	httpd_conn_count
	.cfi_def_cfa_offset 40
	.loc 1 2185 0
	fildl	stats_bytes
	.loc 1 2181 0
	subl	$8, %esp
	.cfi_def_cfa_offset 48
	cltd
	.loc 1 2185 0
	fdiv	%st(1), %st
	.loc 1 2181 0
	fstpl	(%esp)
	pushl	%edx
	.cfi_def_cfa_offset 52
	pushl	%eax
	.cfi_def_cfa_offset 56
	pushl	stats_simultaneous
	.cfi_def_cfa_offset 60
	.loc 1 2183 0
	fildl	stats_connections
	.loc 1 2181 0
	subl	$8, %esp
	.cfi_def_cfa_offset 68
	.loc 1 2183 0
	fdivp	%st, %st(1)
	.loc 1 2181 0
	fstpl	(%esp)
	pushl	stats_connections
	.cfi_def_cfa_offset 72
	pushl	$.LC1
	.cfi_def_cfa_offset 76
	pushl	$6
	.cfi_def_cfa_offset 80
	call	syslog
.LVL3:
	addl	$48, %esp
	.cfi_def_cfa_offset 32
.LVL4:
.L3:
	.loc 1 2186 0
	movl	$0, stats_connections
	.loc 1 2187 0
	movl	$0, stats_bytes
	.loc 1 2188 0
	movl	$0, stats_simultaneous
	.loc 1 2189 0
	addl	$28, %esp
	.cfi_def_cfa_offset 4
	ret
	.cfi_endproc
.LFE33:
	.size	thttpd_logstats, .-thttpd_logstats
	.section	.text.unlikely
.LCOLDE3:
	.text
.LHOTE3:
	.section	.rodata.str1.4
	.align 4
.LC4:
	.string	"throttle #%d '%.80s' rate %ld greatly exceeding limit %ld; %d sending"
	.align 4
.LC5:
	.string	"throttle #%d '%.80s' rate %ld exceeding limit %ld; %d sending"
	.align 4
.LC6:
	.string	"throttle #%d '%.80s' rate %ld lower than minimum %ld; %d sending"
	.section	.text.unlikely
.LCOLDB7:
	.text
.LHOTB7:
	.p2align 4,,15
	.type	update_throttles, @function
update_throttles:
.LFB23:
	.loc 1 1933 0
	.cfi_startproc
.LVL5:
	pushl	%ebp
	.cfi_def_cfa_offset 8
	.cfi_offset 5, -8
	pushl	%edi
	.cfi_def_cfa_offset 12
	.cfi_offset 7, -12
	pushl	%esi
	.cfi_def_cfa_offset 16
	.cfi_offset 6, -16
	pushl	%ebx
	.cfi_def_cfa_offset 20
	.cfi_offset 3, -20
	.loc 1 1942 0
	xorl	%ebx, %ebx
	.loc 1 1933 0
	subl	$28, %esp
	.cfi_def_cfa_offset 48
	.loc 1 1942 0
	movl	numthrottles, %eax
	testl	%eax, %eax
	jg	.L25
	jmp	.L13
.LVL6:
	.p2align 4,,10
	.p2align 3
.L11:
	.loc 1 1942 0 is_stmt 0 discriminator 2
	addl	$1, %ebx
.LVL7:
	cmpl	%ebx, numthrottles
	jle	.L13
.LVL8:
.L25:
	leal	(%ebx,%ebx,2), %esi
	.loc 1 1944 0 is_stmt 1
	movl	throttles, %ecx
	sall	$3, %esi
	addl	%esi, %ecx
	movl	16(%ecx), %eax
	movl	12(%ecx), %edx
	.loc 1 1945 0
	movl	$0, 16(%ecx)
	.loc 1 1944 0
	movl	%eax, %edi
	shrl	$31, %edi
	addl	%edi, %eax
	sarl	%eax
	leal	(%eax,%edx,2), %edi
	movl	$1431655766, %edx
	movl	%edi, %eax
	sarl	$31, %edi
	imull	%edx
	.loc 1 1947 0
	movl	4(%ecx), %eax
	.loc 1 1944 0
	subl	%edi, %edx
	.loc 1 1947 0
	cmpl	%eax, %edx
	.loc 1 1944 0
	movl	%edx, 12(%ecx)
	.loc 1 1947 0
	jle	.L10
	.loc 1 1947 0 is_stmt 0 discriminator 1
	movl	20(%ecx), %edi
	testl	%edi, %edi
	je	.L11
	.loc 1 1949 0 is_stmt 1
	leal	(%eax,%eax), %ebp
	cmpl	%ebp, %edx
	jle	.L12
	.loc 1 1950 0
	subl	$4, %esp
	.cfi_def_cfa_offset 52
	pushl	%edi
	.cfi_def_cfa_offset 56
	pushl	%eax
	.cfi_def_cfa_offset 60
	pushl	%edx
	.cfi_def_cfa_offset 64
	pushl	(%ecx)
	.cfi_def_cfa_offset 68
	pushl	%ebx
	.cfi_def_cfa_offset 72
	pushl	$.LC4
	.cfi_def_cfa_offset 76
	pushl	$5
	.cfi_def_cfa_offset 80
.L33:
	.loc 1 1952 0
	call	syslog
.LVL9:
	addl	throttles, %esi
	addl	$32, %esp
	.cfi_def_cfa_offset 48
	movl	12(%esi), %edx
	movl	%esi, %ecx
.L10:
	.loc 1 1954 0
	movl	8(%ecx), %eax
	cmpl	%edx, %eax
	jle	.L11
	.loc 1 1954 0 is_stmt 0 discriminator 1
	movl	20(%ecx), %esi
	testl	%esi, %esi
	je	.L11
	.loc 1 1956 0 is_stmt 1
	subl	$4, %esp
	.cfi_def_cfa_offset 52
	pushl	%esi
	.cfi_def_cfa_offset 56
	pushl	%eax
	.cfi_def_cfa_offset 60
	pushl	%edx
	.cfi_def_cfa_offset 64
	pushl	(%ecx)
	.cfi_def_cfa_offset 68
	pushl	%ebx
	.cfi_def_cfa_offset 72
	pushl	$.LC6
	.cfi_def_cfa_offset 76
	.loc 1 1942 0
	addl	$1, %ebx
.LVL10:
	.loc 1 1956 0
	pushl	$5
	.cfi_def_cfa_offset 80
	call	syslog
.LVL11:
	addl	$32, %esp
	.cfi_def_cfa_offset 48
	.loc 1 1942 0
	cmpl	%ebx, numthrottles
	jg	.L25
.LVL12:
	.p2align 4,,10
	.p2align 3
.L13:
	.loc 1 1963 0
	movl	max_connects, %eax
	testl	%eax, %eax
	jle	.L6
	movl	connects, %esi
	leal	(%eax,%eax,2), %eax
	movl	throttles, %ebp
	sall	$5, %eax
	addl	%esi, %eax
	movl	%eax, 12(%esp)
	jmp	.L15
.LVL13:
	.p2align 4,,10
	.p2align 3
.L16:
	addl	$96, %esi
.LVL14:
	cmpl	12(%esp), %esi
	je	.L6
.LVL15:
.L15:
	.loc 1 1966 0
	movl	(%esi), %eax
	subl	$2, %eax
	cmpl	$1, %eax
	ja	.L16
	.loc 1 1969 0
	movl	52(%esi), %eax
	.loc 1 1968 0
	movl	$-1, 56(%esi)
.LVL16:
	.loc 1 1969 0
	testl	%eax, %eax
	jle	.L16
	leal	12(%esi,%eax,4), %edi
	leal	12(%esi), %ebx
	movl	$-1, %ecx
	movl	%edi, 8(%esp)
	jmp	.L19
.LVL17:
	.p2align 4,,10
	.p2align 3
.L36:
	movl	56(%esi), %ecx
.L19:
.LVL18:
	.loc 1 1972 0
	movl	(%ebx), %eax
	leal	(%eax,%eax,2), %eax
	leal	0(%ebp,%eax,8), %edi
	movl	4(%edi), %eax
	cltd
	idivl	20(%edi)
.LVL19:
	.loc 1 1973 0
	cmpl	$-1, %ecx
	je	.L34
	.loc 1 1976 0
	cmpl	%eax, %ecx
	cmovle	%ecx, %eax
.LVL20:
.L34:
	addl	$4, %ebx
.LVL21:
	.loc 1 1969 0
	cmpl	8(%esp), %ebx
	.loc 1 1976 0
	movl	%eax, 56(%esi)
.LVL22:
	.loc 1 1969 0
	jne	.L36
	addl	$96, %esi
.LVL23:
	.loc 1 1963 0
	cmpl	12(%esp), %esi
	jne	.L15
.LVL24:
.L6:
	.loc 1 1980 0
	addl	$28, %esp
	.cfi_remember_state
	.cfi_def_cfa_offset 20
	popl	%ebx
	.cfi_restore 3
	.cfi_def_cfa_offset 16
	popl	%esi
	.cfi_restore 6
	.cfi_def_cfa_offset 12
	popl	%edi
	.cfi_restore 7
	.cfi_def_cfa_offset 8
	popl	%ebp
	.cfi_restore 5
	.cfi_def_cfa_offset 4
	ret
.LVL25:
	.p2align 4,,10
	.p2align 3
.L12:
	.cfi_restore_state
	.loc 1 1952 0
	subl	$4, %esp
	.cfi_def_cfa_offset 52
	pushl	%edi
	.cfi_def_cfa_offset 56
	pushl	%eax
	.cfi_def_cfa_offset 60
	pushl	%edx
	.cfi_def_cfa_offset 64
	pushl	(%ecx)
	.cfi_def_cfa_offset 68
	pushl	%ebx
	.cfi_def_cfa_offset 72
	pushl	$.LC5
	.cfi_def_cfa_offset 76
	pushl	$6
	.cfi_def_cfa_offset 80
	jmp	.L33
	.cfi_endproc
.LFE23:
	.size	update_throttles, .-update_throttles
	.section	.text.unlikely
.LCOLDE7:
	.text
.LHOTE7:
	.section	.rodata.str1.4
	.align 4
.LC8:
	.string	"%s: no value required for %s option\n"
	.section	.text.unlikely
.LCOLDB9:
	.text
.LHOTB9:
	.p2align 4,,15
	.type	no_value_required, @function
no_value_required:
.LFB12:
	.loc 1 1207 0
	.cfi_startproc
.LVL26:
	.loc 1 1208 0
	testl	%edx, %edx
	jne	.L41
	rep; ret
.L41:
	.loc 1 1207 0
	subl	$12, %esp
	.cfi_def_cfa_offset 16
	.loc 1 1210 0
	pushl	%eax
	.cfi_def_cfa_offset 20
	pushl	argv0
	.cfi_def_cfa_offset 24
	pushl	$.LC8
	.cfi_def_cfa_offset 28
	pushl	stderr
	.cfi_def_cfa_offset 32
	call	fprintf
.LVL27:
	.loc 1 1213 0
	movl	$1, (%esp)
	call	exit
.LVL28:
	.cfi_endproc
.LFE12:
	.size	no_value_required, .-no_value_required
	.section	.text.unlikely
.LCOLDE9:
	.text
.LHOTE9:
	.section	.rodata.str1.4
	.align 4
.LC10:
	.string	"%s: value required for %s option\n"
	.section	.text.unlikely
.LCOLDB11:
	.text
.LHOTB11:
	.p2align 4,,15
	.type	value_required, @function
value_required:
.LFB11:
	.loc 1 1195 0
	.cfi_startproc
.LVL29:
	.loc 1 1196 0
	testl	%edx, %edx
	je	.L46
	rep; ret
.L46:
	.loc 1 1195 0
	subl	$12, %esp
	.cfi_def_cfa_offset 16
	.loc 1 1198 0
	pushl	%eax
	.cfi_def_cfa_offset 20
	pushl	argv0
	.cfi_def_cfa_offset 24
	pushl	$.LC10
	.cfi_def_cfa_offset 28
	pushl	stderr
	.cfi_def_cfa_offset 32
	call	fprintf
.LVL30:
	.loc 1 1200 0
	movl	$1, (%esp)
	call	exit
.LVL31:
	.cfi_endproc
.LFE11:
	.size	value_required, .-value_required
	.section	.text.unlikely
.LCOLDE11:
	.text
.LHOTE11:
	.section	.rodata.str1.4
	.align 4
.LC12:
	.string	"usage:  %s [-C configfile] [-p port] [-d dir] [-r|-nor] [-dd data_dir] [-s|-nos] [-v|-nov] [-g|-nog] [-u user] [-c cgipat] [-t throttles] [-h host] [-l logfile] [-i pidfile] [-T charset] [-P P3P] [-M maxage] [-V] [-D]\n"
	.section	.text.unlikely
.LCOLDB13:
.LHOTB13:
	.type	usage, @function
usage:
.LFB9:
	.loc 1 990 0
	.cfi_startproc
	subl	$16, %esp
	.cfi_def_cfa_offset 20
	.loc 1 991 0
	pushl	argv0
	.cfi_def_cfa_offset 24
	pushl	$.LC12
	.cfi_def_cfa_offset 28
	pushl	stderr
	.cfi_def_cfa_offset 32
	call	fprintf
.LVL32:
	.loc 1 994 0
	movl	$1, (%esp)
	call	exit
.LVL33:
	.cfi_endproc
.LFE9:
	.size	usage, .-usage
.LCOLDE13:
.LHOTE13:
.LCOLDB14:
	.text
.LHOTB14:
	.p2align 4,,15
	.type	wakeup_connection, @function
wakeup_connection:
.LFB28:
	.loc 1 2105 0
	.cfi_startproc
.LVL34:
	subl	$12, %esp
	.cfi_def_cfa_offset 16
	.loc 1 2105 0
	movl	16(%esp), %eax
.LVL35:
	.loc 1 2110 0
	cmpl	$3, (%eax)
	.loc 1 2109 0
	movl	$0, 72(%eax)
	.loc 1 2110 0
	je	.L52
	.loc 1 2115 0
	addl	$12, %esp
	.cfi_remember_state
	.cfi_def_cfa_offset 4
	ret
	.p2align 4,,10
	.p2align 3
.L52:
	.cfi_restore_state
	.loc 1 2113 0
	subl	$4, %esp
	.cfi_def_cfa_offset 20
	.loc 1 2112 0
	movl	$2, (%eax)
	.loc 1 2113 0
	pushl	$1
	.cfi_def_cfa_offset 24
	pushl	%eax
	.cfi_def_cfa_offset 28
	movl	8(%eax), %eax
.LVL36:
	pushl	448(%eax)
	.cfi_def_cfa_offset 32
	call	fdwatch_add_fd
.LVL37:
	addl	$16, %esp
	.cfi_def_cfa_offset 16
	.loc 1 2115 0
	addl	$12, %esp
	.cfi_def_cfa_offset 4
	ret
	.cfi_endproc
.LFE28:
	.size	wakeup_connection, .-wakeup_connection
	.section	.text.unlikely
.LCOLDE14:
	.text
.LHOTE14:
	.section	.rodata.str1.4
	.align 4
.LC15:
	.string	"up %ld seconds, stats for %ld seconds:"
	.section	.text.unlikely
.LCOLDB16:
	.text
.LHOTB16:
	.p2align 4,,15
	.type	logstats, @function
logstats:
.LFB32:
	.loc 1 2149 0
	.cfi_startproc
.LVL38:
	pushl	%ebx
	.cfi_def_cfa_offset 8
	.cfi_offset 3, -8
	subl	$24, %esp
	.cfi_def_cfa_offset 32
	.loc 1 2149 0
	movl	%gs:20, %ecx
	movl	%ecx, 12(%esp)
	xorl	%ecx, %ecx
	.loc 1 2154 0
	testl	%eax, %eax
	je	.L58
.L54:
	.loc 1 2159 0
	movl	(%eax), %eax
.LVL39:
	.loc 1 2163 0
	movl	$1, %ecx
	.loc 1 2160 0
	movl	%eax, %edx
	.loc 1 2163 0
	movl	%eax, %ebx
	.loc 1 2160 0
	subl	start_time, %edx
.LVL40:
	.loc 1 2163 0
	subl	stats_time, %ebx
.LVL41:
	.loc 1 2164 0
	movl	%eax, stats_time
	.loc 1 2163 0
	cmove	%ecx, %ebx
.LVL42:
	.loc 1 2165 0
	pushl	%ebx
	.cfi_def_cfa_offset 36
	pushl	%edx
	.cfi_def_cfa_offset 40
	pushl	$.LC15
	.cfi_def_cfa_offset 44
	pushl	$6
	.cfi_def_cfa_offset 48
	call	syslog
.LVL43:
	.loc 1 2168 0
	movl	%ebx, %eax
	call	thttpd_logstats
.LVL44:
	.loc 1 2169 0
	movl	%ebx, (%esp)
	call	httpd_logstats
.LVL45:
	.loc 1 2170 0
	movl	%ebx, (%esp)
	call	mmc_logstats
.LVL46:
	.loc 1 2171 0
	movl	%ebx, (%esp)
	call	fdwatch_logstats
.LVL47:
	.loc 1 2172 0
	movl	%ebx, (%esp)
	call	tmr_logstats
.LVL48:
	addl	$16, %esp
	.cfi_def_cfa_offset 32
	.loc 1 2173 0
	movl	12(%esp), %eax
	xorl	%gs:20, %eax
	jne	.L59
	addl	$24, %esp
	.cfi_remember_state
	.cfi_def_cfa_offset 8
	popl	%ebx
	.cfi_restore 3
	.cfi_def_cfa_offset 4
.LVL49:
	ret
.LVL50:
	.p2align 4,,10
	.p2align 3
.L58:
	.cfi_restore_state
	.loc 1 2156 0
	subl	$8, %esp
	.cfi_def_cfa_offset 40
	pushl	$0
	.cfi_def_cfa_offset 44
	leal	16(%esp), %ebx
	pushl	%ebx
	.cfi_def_cfa_offset 48
	call	gettimeofday
.LVL51:
	addl	$16, %esp
	.cfi_def_cfa_offset 32
	.loc 1 2157 0
	movl	%ebx, %eax
	jmp	.L54
.LVL52:
.L59:
	.loc 1 2173 0
	call	__stack_chk_fail
.LVL53:
	.cfi_endproc
.LFE32:
	.size	logstats, .-logstats
	.section	.text.unlikely
.LCOLDE16:
	.text
.LHOTE16:
	.section	.text.unlikely
.LCOLDB17:
	.text
.LHOTB17:
	.p2align 4,,15
	.type	show_stats, @function
show_stats:
.LFB31:
	.loc 1 2140 0
	.cfi_startproc
.LVL54:
	.loc 1 2141 0
	movl	8(%esp), %eax
	jmp	logstats
.LVL55:
	.cfi_endproc
.LFE31:
	.size	show_stats, .-show_stats
	.section	.text.unlikely
.LCOLDE17:
	.text
.LHOTE17:
	.section	.text.unlikely
.LCOLDB18:
	.text
.LHOTB18:
	.p2align 4,,15
	.type	handle_usr2, @function
handle_usr2:
.LFB4:
	.loc 1 282 0
	.cfi_startproc
.LVL56:
	pushl	%esi
	.cfi_def_cfa_offset 8
	.cfi_offset 6, -8
	pushl	%ebx
	.cfi_def_cfa_offset 12
	.cfi_offset 3, -12
	subl	$4, %esp
	.cfi_def_cfa_offset 16
	.loc 1 283 0
	call	__errno_location
.LVL57:
	movl	(%eax), %esi
.LVL58:
	movl	%eax, %ebx
	.loc 1 290 0
	xorl	%eax, %eax
	call	logstats
.LVL59:
	.loc 1 293 0
	movl	%esi, (%ebx)
	.loc 1 294 0
	addl	$4, %esp
	.cfi_def_cfa_offset 12
	popl	%ebx
	.cfi_restore 3
	.cfi_def_cfa_offset 8
	popl	%esi
	.cfi_restore 6
	.cfi_def_cfa_offset 4
.LVL60:
	ret
	.cfi_endproc
.LFE4:
	.size	handle_usr2, .-handle_usr2
	.section	.text.unlikely
.LCOLDE18:
	.text
.LHOTE18:
	.section	.text.unlikely
.LCOLDB19:
	.text
.LHOTB19:
	.p2align 4,,15
	.type	occasional, @function
occasional:
.LFB30:
	.loc 1 2130 0
	.cfi_startproc
.LVL61:
	subl	$24, %esp
	.cfi_def_cfa_offset 28
	.loc 1 2131 0
	pushl	32(%esp)
	.cfi_def_cfa_offset 32
	call	mmc_cleanup
.LVL62:
	.loc 1 2132 0
	call	tmr_cleanup
.LVL63:
	.loc 1 2133 0
	movl	$1, watchdog_flag
	.loc 1 2134 0
	addl	$28, %esp
	.cfi_def_cfa_offset 4
	ret
	.cfi_endproc
.LFE30:
	.size	occasional, .-occasional
	.section	.text.unlikely
.LCOLDE19:
	.text
.LHOTE19:
	.section	.rodata.str1.1,"aMS",@progbits,1
.LC20:
	.string	"/tmp"
	.section	.text.unlikely
.LCOLDB21:
	.text
.LHOTB21:
	.p2align 4,,15
	.type	handle_alrm, @function
handle_alrm:
.LFB5:
	.loc 1 300 0
	.cfi_startproc
.LVL64:
	pushl	%esi
	.cfi_def_cfa_offset 8
	.cfi_offset 6, -8
	pushl	%ebx
	.cfi_def_cfa_offset 12
	.cfi_offset 3, -12
	subl	$4, %esp
	.cfi_def_cfa_offset 16
	.loc 1 301 0
	call	__errno_location
.LVL65:
	movl	%eax, %ebx
	movl	(%eax), %esi
.LVL66:
	.loc 1 304 0
	movl	watchdog_flag, %eax
	testl	%eax, %eax
	je	.L68
	.loc 1 318 0
	subl	$12, %esp
	.cfi_def_cfa_offset 28
	.loc 1 311 0
	movl	$0, watchdog_flag
	.loc 1 318 0
	pushl	$360
	.cfi_def_cfa_offset 32
	call	alarm
.LVL67:
	.loc 1 321 0
	movl	%esi, (%ebx)
	.loc 1 322 0
	addl	$20, %esp
	.cfi_def_cfa_offset 12
	popl	%ebx
	.cfi_restore 3
	.cfi_def_cfa_offset 8
	popl	%esi
	.cfi_restore 6
	.cfi_def_cfa_offset 4
.LVL68:
	ret
.LVL69:
.L68:
	.cfi_def_cfa_offset 16
	.cfi_offset 3, -12
	.cfi_offset 6, -8
	.loc 1 307 0
	subl	$12, %esp
	.cfi_def_cfa_offset 28
	pushl	$.LC20
	.cfi_def_cfa_offset 32
	call	chdir
.LVL70:
	.loc 1 309 0
	call	abort
.LVL71:
	.cfi_endproc
.LFE5:
	.size	handle_alrm, .-handle_alrm
	.section	.text.unlikely
.LCOLDE21:
	.text
.LHOTE21:
	.section	.rodata.str1.1
.LC22:
	.string	"child wait - %m"
	.section	.text.unlikely
.LCOLDB23:
	.text
.LHOTB23:
	.p2align 4,,15
	.type	handle_chld, @function
handle_chld:
.LFB1:
	.loc 1 185 0
	.cfi_startproc
.LVL72:
	pushl	%ebp
	.cfi_def_cfa_offset 8
	.cfi_offset 5, -8
	pushl	%edi
	.cfi_def_cfa_offset 12
	.cfi_offset 7, -12
	.loc 1 224 0
	xorl	%edi, %edi
	.loc 1 185 0
	pushl	%esi
	.cfi_def_cfa_offset 16
	.cfi_offset 6, -16
	pushl	%ebx
	.cfi_def_cfa_offset 20
	.cfi_offset 3, -20
	subl	$28, %esp
	.cfi_def_cfa_offset 48
	.loc 1 185 0
	movl	%gs:20, %eax
	movl	%eax, 12(%esp)
	xorl	%eax, %eax
	.loc 1 186 0
	call	__errno_location
.LVL73:
	movl	(%eax), %ebp
.LVL74:
	leal	8(%esp), %ebx
	movl	%eax, %esi
	.p2align 4,,10
	.p2align 3
.L70:
	.loc 1 199 0
	subl	$4, %esp
	.cfi_def_cfa_offset 52
	pushl	$1
	.cfi_def_cfa_offset 56
	pushl	%ebx
	.cfi_def_cfa_offset 60
	pushl	$-1
	.cfi_def_cfa_offset 64
	call	waitpid
.LVL75:
	.loc 1 203 0
	addl	$16, %esp
	.cfi_def_cfa_offset 48
	testl	%eax, %eax
	je	.L71
	.loc 1 205 0
	js	.L87
	.loc 1 222 0
	movl	hs, %edx
	testl	%edx, %edx
	je	.L70
	.loc 1 224 0
	movl	20(%edx), %eax
.LVL76:
	subl	$1, %eax
	cmovs	%edi, %eax
	movl	%eax, 20(%edx)
	jmp	.L70
.LVL77:
	.p2align 4,,10
	.p2align 3
.L87:
	.loc 1 207 0
	movl	(%esi), %eax
.LVL78:
	cmpl	$11, %eax
	je	.L70
	cmpl	$4, %eax
	je	.L70
	.loc 1 212 0
	cmpl	$10, %eax
	je	.L71
	.loc 1 213 0
	subl	$8, %esp
	.cfi_def_cfa_offset 56
	pushl	$.LC22
	.cfi_def_cfa_offset 60
	pushl	$3
	.cfi_def_cfa_offset 64
	call	syslog
.LVL79:
	addl	$16, %esp
	.cfi_def_cfa_offset 48
.L71:
	.loc 1 232 0
	movl	12(%esp), %eax
	xorl	%gs:20, %eax
	.loc 1 231 0
	movl	%ebp, (%esi)
	.loc 1 232 0
	jne	.L88
	addl	$28, %esp
	.cfi_remember_state
	.cfi_def_cfa_offset 20
	popl	%ebx
	.cfi_restore 3
	.cfi_def_cfa_offset 16
	popl	%esi
	.cfi_restore 6
	.cfi_def_cfa_offset 12
	popl	%edi
	.cfi_restore 7
	.cfi_def_cfa_offset 8
	popl	%ebp
	.cfi_restore 5
	.cfi_def_cfa_offset 4
.LVL80:
	ret
.LVL81:
.L88:
	.cfi_restore_state
	call	__stack_chk_fail
.LVL82:
	.cfi_endproc
.LFE1:
	.size	handle_chld, .-handle_chld
	.section	.text.unlikely
.LCOLDE23:
	.text
.LHOTE23:
	.section	.rodata.str1.4
	.align 4
.LC24:
	.string	"out of memory copying a string"
	.align 4
.LC25:
	.string	"%s: out of memory copying a string\n"
	.section	.text.unlikely
.LCOLDB26:
	.text
.LHOTB26:
	.p2align 4,,15
	.type	e_strdup, @function
e_strdup:
.LFB13:
	.loc 1 1220 0
	.cfi_startproc
.LVL83:
	subl	$24, %esp
	.cfi_def_cfa_offset 28
	.loc 1 1223 0
	pushl	%eax
	.cfi_def_cfa_offset 32
	call	strdup
.LVL84:
	.loc 1 1224 0
	addl	$16, %esp
	.cfi_def_cfa_offset 16
	testl	%eax, %eax
	je	.L92
	.loc 1 1231 0
	addl	$12, %esp
	.cfi_remember_state
	.cfi_def_cfa_offset 4
	ret
.L92:
	.cfi_restore_state
.LVL85:
	.loc 1 1226 0
	pushl	%eax
	.cfi_def_cfa_offset 20
	pushl	%eax
	.cfi_def_cfa_offset 24
	pushl	$.LC24
	.cfi_def_cfa_offset 28
	pushl	$2
	.cfi_def_cfa_offset 32
	call	syslog
.LVL86:
	.loc 1 1227 0
	addl	$12, %esp
	.cfi_def_cfa_offset 20
	pushl	argv0
	.cfi_def_cfa_offset 24
	pushl	$.LC25
	.cfi_def_cfa_offset 28
	pushl	stderr
	.cfi_def_cfa_offset 32
	call	fprintf
.LVL87:
	.loc 1 1228 0
	movl	$1, (%esp)
	call	exit
.LVL88:
	.cfi_endproc
.LFE13:
	.size	e_strdup, .-e_strdup
	.section	.text.unlikely
.LCOLDE26:
	.text
.LHOTE26:
	.section	.rodata.str1.1
.LC27:
	.string	"r"
.LC28:
	.string	" \t\n\r"
.LC29:
	.string	"debug"
.LC30:
	.string	"port"
.LC31:
	.string	"dir"
.LC32:
	.string	"chroot"
.LC33:
	.string	"nochroot"
.LC34:
	.string	"data_dir"
.LC35:
	.string	"symlink"
.LC36:
	.string	"nosymlink"
.LC37:
	.string	"symlinks"
.LC38:
	.string	"nosymlinks"
.LC39:
	.string	"user"
.LC40:
	.string	"cgipat"
.LC41:
	.string	"cgilimit"
.LC42:
	.string	"urlpat"
.LC43:
	.string	"noemptyreferers"
.LC44:
	.string	"localpat"
.LC45:
	.string	"throttles"
.LC46:
	.string	"host"
.LC47:
	.string	"logfile"
.LC48:
	.string	"vhost"
.LC49:
	.string	"novhost"
.LC50:
	.string	"globalpasswd"
.LC51:
	.string	"noglobalpasswd"
.LC52:
	.string	"pidfile"
.LC53:
	.string	"charset"
.LC54:
	.string	"p3p"
.LC55:
	.string	"max_age"
	.section	.rodata.str1.4
	.align 4
.LC56:
	.string	"%s: unknown config option '%s'\n"
	.section	.text.unlikely
.LCOLDB57:
	.text
.LHOTB57:
	.p2align 4,,15
	.type	read_config, @function
read_config:
.LFB10:
	.loc 1 1000 0
	.cfi_startproc
.LVL89:
	pushl	%ebp
	.cfi_def_cfa_offset 8
	.cfi_offset 5, -8
	pushl	%edi
	.cfi_def_cfa_offset 12
	.cfi_offset 7, -12
	pushl	%esi
	.cfi_def_cfa_offset 16
	.cfi_offset 6, -16
	pushl	%ebx
	.cfi_def_cfa_offset 20
	.cfi_offset 3, -20
	movl	%eax, %ebx
	subl	$148, %esp
	.cfi_def_cfa_offset 168
	.loc 1 1000 0
	movl	%gs:20, %eax
	movl	%eax, 132(%esp)
	xorl	%eax, %eax
.LVL90:
	.loc 1 1008 0
	pushl	$.LC27
	.cfi_def_cfa_offset 172
	pushl	%ebx
	.cfi_def_cfa_offset 176
	call	fopen
.LVL91:
	movl	%eax, 28(%esp)
.LVL92:
	.loc 1 1009 0
	addl	$16, %esp
	.cfi_def_cfa_offset 160
	testl	%eax, %eax
	je	.L145
	leal	24(%esp), %edi
.LVL93:
.L94:
	.loc 1 1015 0
	subl	$4, %esp
	.cfi_def_cfa_offset 164
	pushl	16(%esp)
	.cfi_def_cfa_offset 168
	pushl	$1000
	.cfi_def_cfa_offset 172
	pushl	%edi
	.cfi_def_cfa_offset 176
	call	fgets
.LVL94:
	addl	$16, %esp
	.cfi_def_cfa_offset 160
	testl	%eax, %eax
	je	.L152
	.loc 1 1018 0
	subl	$8, %esp
	.cfi_def_cfa_offset 168
	pushl	$35
	.cfi_def_cfa_offset 172
	pushl	%edi
	.cfi_def_cfa_offset 176
	call	strchr
.LVL95:
	addl	$16, %esp
	.cfi_def_cfa_offset 160
.LVL96:
	testl	%eax, %eax
	je	.L95
	.loc 1 1019 0
	movb	$0, (%eax)
.L95:
.LVL97:
	.loc 1 1023 0
	subl	$8, %esp
	.cfi_def_cfa_offset 168
.LVL98:
	pushl	$.LC28
	.cfi_def_cfa_offset 172
.LVL99:
	pushl	%edi
	.cfi_def_cfa_offset 176
.LVL100:
	call	strspn
.LVL101:
	leal	(%edi,%eax), %ebx
.LVL102:
	addl	$16, %esp
	.cfi_def_cfa_offset 160
	.loc 1 1026 0
	cmpb	$0, (%ebx)
	je	.L94
	.p2align 4,,10
	.p2align 3
.L140:
	.loc 1 1029 0
	subl	$8, %esp
	.cfi_def_cfa_offset 168
	pushl	$.LC28
	.cfi_def_cfa_offset 172
	pushl	%ebx
	.cfi_def_cfa_offset 176
	call	strcspn
.LVL103:
	addl	$16, %esp
	.cfi_def_cfa_offset 160
	leal	(%ebx,%eax), %ebp
.LVL104:
	jmp	.L148
	.p2align 4,,10
	.p2align 3
.L142:
	.loc 1 1032 0
	addl	$1, %ebp
.LVL105:
	movb	$0, -1(%ebp)
.L148:
	.loc 1 1031 0
	movzbl	0(%ebp), %eax
	cmpb	$13, %al
	sete	%cl
	cmpb	$32, %al
	sete	%dl
	orb	%dl, %cl
	jne	.L142
	subl	$9, %eax
	cmpb	$1, %al
	jbe	.L142
.LVL106:
	.loc 1 1035 0
	subl	$8, %esp
	.cfi_def_cfa_offset 168
	pushl	$61
	.cfi_def_cfa_offset 172
	pushl	%ebx
	.cfi_def_cfa_offset 176
	call	strchr
.LVL107:
	addl	$16, %esp
	.cfi_def_cfa_offset 160
.LVL108:
	.loc 1 1036 0
	testl	%eax, %eax
	je	.L133
	.loc 1 1037 0
	leal	1(%eax), %esi
.LVL109:
	movb	$0, (%eax)
.LVL110:
.L100:
	.loc 1 1039 0
	subl	$8, %esp
	.cfi_def_cfa_offset 168
	pushl	$.LC29
	.cfi_def_cfa_offset 172
	pushl	%ebx
	.cfi_def_cfa_offset 176
	call	strcasecmp
.LVL111:
	addl	$16, %esp
	.cfi_def_cfa_offset 160
	testl	%eax, %eax
	je	.L153
	.loc 1 1044 0
	subl	$8, %esp
	.cfi_def_cfa_offset 168
	pushl	$.LC30
	.cfi_def_cfa_offset 172
	pushl	%ebx
	.cfi_def_cfa_offset 176
	call	strcasecmp
.LVL112:
	addl	$16, %esp
	.cfi_def_cfa_offset 160
	testl	%eax, %eax
	je	.L154
	.loc 1 1049 0
	subl	$8, %esp
	.cfi_def_cfa_offset 168
	pushl	$.LC31
	.cfi_def_cfa_offset 172
	pushl	%ebx
	.cfi_def_cfa_offset 176
	call	strcasecmp
.LVL113:
	addl	$16, %esp
	.cfi_def_cfa_offset 160
	testl	%eax, %eax
	je	.L155
	.loc 1 1054 0
	subl	$8, %esp
	.cfi_def_cfa_offset 168
	pushl	$.LC32
	.cfi_def_cfa_offset 172
	pushl	%ebx
	.cfi_def_cfa_offset 176
	call	strcasecmp
.LVL114:
	addl	$16, %esp
	.cfi_def_cfa_offset 160
	testl	%eax, %eax
	je	.L156
	.loc 1 1060 0
	subl	$8, %esp
	.cfi_def_cfa_offset 168
	pushl	$.LC33
	.cfi_def_cfa_offset 172
	pushl	%ebx
	.cfi_def_cfa_offset 176
	call	strcasecmp
.LVL115:
	addl	$16, %esp
	.cfi_def_cfa_offset 160
	testl	%eax, %eax
	je	.L157
	.loc 1 1066 0
	subl	$8, %esp
	.cfi_def_cfa_offset 168
	pushl	$.LC34
	.cfi_def_cfa_offset 172
	pushl	%ebx
	.cfi_def_cfa_offset 176
	call	strcasecmp
.LVL116:
	addl	$16, %esp
	.cfi_def_cfa_offset 160
	testl	%eax, %eax
	je	.L158
	.loc 1 1071 0
	subl	$8, %esp
	.cfi_def_cfa_offset 168
	pushl	$.LC35
	.cfi_def_cfa_offset 172
	pushl	%ebx
	.cfi_def_cfa_offset 176
	call	strcasecmp
.LVL117:
	addl	$16, %esp
	.cfi_def_cfa_offset 160
	testl	%eax, %eax
	je	.L149
	.loc 1 1076 0
	subl	$8, %esp
	.cfi_def_cfa_offset 168
	pushl	$.LC36
	.cfi_def_cfa_offset 172
	pushl	%ebx
	.cfi_def_cfa_offset 176
	call	strcasecmp
.LVL118:
	addl	$16, %esp
	.cfi_def_cfa_offset 160
	testl	%eax, %eax
	je	.L150
	.loc 1 1081 0
	subl	$8, %esp
	.cfi_def_cfa_offset 168
	pushl	$.LC37
	.cfi_def_cfa_offset 172
	pushl	%ebx
	.cfi_def_cfa_offset 176
	call	strcasecmp
.LVL119:
	addl	$16, %esp
	.cfi_def_cfa_offset 160
	testl	%eax, %eax
	je	.L149
	.loc 1 1086 0
	subl	$8, %esp
	.cfi_def_cfa_offset 168
	pushl	$.LC38
	.cfi_def_cfa_offset 172
	pushl	%ebx
	.cfi_def_cfa_offset 176
	call	strcasecmp
.LVL120:
	addl	$16, %esp
	.cfi_def_cfa_offset 160
	testl	%eax, %eax
	je	.L150
	.loc 1 1091 0
	subl	$8, %esp
	.cfi_def_cfa_offset 168
	pushl	$.LC39
	.cfi_def_cfa_offset 172
	pushl	%ebx
	.cfi_def_cfa_offset 176
	call	strcasecmp
.LVL121:
	addl	$16, %esp
	.cfi_def_cfa_offset 160
	testl	%eax, %eax
	je	.L159
	.loc 1 1096 0
	subl	$8, %esp
	.cfi_def_cfa_offset 168
	pushl	$.LC40
	.cfi_def_cfa_offset 172
	pushl	%ebx
	.cfi_def_cfa_offset 176
	call	strcasecmp
.LVL122:
	addl	$16, %esp
	.cfi_def_cfa_offset 160
	testl	%eax, %eax
	je	.L160
	.loc 1 1101 0
	subl	$8, %esp
	.cfi_def_cfa_offset 168
	pushl	$.LC41
	.cfi_def_cfa_offset 172
	pushl	%ebx
	.cfi_def_cfa_offset 176
	call	strcasecmp
.LVL123:
	addl	$16, %esp
	.cfi_def_cfa_offset 160
	testl	%eax, %eax
	je	.L161
	.loc 1 1106 0
	subl	$8, %esp
	.cfi_def_cfa_offset 168
	pushl	$.LC42
	.cfi_def_cfa_offset 172
	pushl	%ebx
	.cfi_def_cfa_offset 176
	call	strcasecmp
.LVL124:
	addl	$16, %esp
	.cfi_def_cfa_offset 160
	testl	%eax, %eax
	je	.L162
	.loc 1 1111 0
	subl	$8, %esp
	.cfi_def_cfa_offset 168
	pushl	$.LC43
	.cfi_def_cfa_offset 172
	pushl	%ebx
	.cfi_def_cfa_offset 176
	call	strcasecmp
.LVL125:
	addl	$16, %esp
	.cfi_def_cfa_offset 160
	testl	%eax, %eax
	je	.L163
	.loc 1 1116 0
	subl	$8, %esp
	.cfi_def_cfa_offset 168
	pushl	$.LC44
	.cfi_def_cfa_offset 172
	pushl	%ebx
	.cfi_def_cfa_offset 176
	call	strcasecmp
.LVL126:
	addl	$16, %esp
	.cfi_def_cfa_offset 160
	testl	%eax, %eax
	je	.L164
	.loc 1 1121 0
	subl	$8, %esp
	.cfi_def_cfa_offset 168
	pushl	$.LC45
	.cfi_def_cfa_offset 172
	pushl	%ebx
	.cfi_def_cfa_offset 176
	call	strcasecmp
.LVL127:
	addl	$16, %esp
	.cfi_def_cfa_offset 160
	testl	%eax, %eax
	je	.L165
	.loc 1 1126 0
	subl	$8, %esp
	.cfi_def_cfa_offset 168
	pushl	$.LC46
	.cfi_def_cfa_offset 172
	pushl	%ebx
	.cfi_def_cfa_offset 176
	call	strcasecmp
.LVL128:
	addl	$16, %esp
	.cfi_def_cfa_offset 160
	testl	%eax, %eax
	je	.L166
	.loc 1 1131 0
	subl	$8, %esp
	.cfi_def_cfa_offset 168
	pushl	$.LC47
	.cfi_def_cfa_offset 172
	pushl	%ebx
	.cfi_def_cfa_offset 176
	call	strcasecmp
.LVL129:
	addl	$16, %esp
	.cfi_def_cfa_offset 160
	testl	%eax, %eax
	je	.L167
	.loc 1 1136 0
	subl	$8, %esp
	.cfi_def_cfa_offset 168
	pushl	$.LC48
	.cfi_def_cfa_offset 172
	pushl	%ebx
	.cfi_def_cfa_offset 176
	call	strcasecmp
.LVL130:
	addl	$16, %esp
	.cfi_def_cfa_offset 160
	testl	%eax, %eax
	je	.L168
	.loc 1 1141 0
	subl	$8, %esp
	.cfi_def_cfa_offset 168
	pushl	$.LC49
	.cfi_def_cfa_offset 172
	pushl	%ebx
	.cfi_def_cfa_offset 176
	call	strcasecmp
.LVL131:
	addl	$16, %esp
	.cfi_def_cfa_offset 160
	testl	%eax, %eax
	je	.L169
	.loc 1 1146 0
	subl	$8, %esp
	.cfi_def_cfa_offset 168
	pushl	$.LC50
	.cfi_def_cfa_offset 172
	pushl	%ebx
	.cfi_def_cfa_offset 176
	call	strcasecmp
.LVL132:
	addl	$16, %esp
	.cfi_def_cfa_offset 160
	testl	%eax, %eax
	je	.L170
	.loc 1 1151 0
	subl	$8, %esp
	.cfi_def_cfa_offset 168
	pushl	$.LC51
	.cfi_def_cfa_offset 172
	pushl	%ebx
	.cfi_def_cfa_offset 176
	call	strcasecmp
.LVL133:
	addl	$16, %esp
	.cfi_def_cfa_offset 160
	testl	%eax, %eax
	je	.L171
	.loc 1 1156 0
	subl	$8, %esp
	.cfi_def_cfa_offset 168
	pushl	$.LC52
	.cfi_def_cfa_offset 172
	pushl	%ebx
	.cfi_def_cfa_offset 176
	call	strcasecmp
.LVL134:
	addl	$16, %esp
	.cfi_def_cfa_offset 160
	testl	%eax, %eax
	je	.L172
	.loc 1 1161 0
	subl	$8, %esp
	.cfi_def_cfa_offset 168
	pushl	$.LC53
	.cfi_def_cfa_offset 172
	pushl	%ebx
	.cfi_def_cfa_offset 176
	call	strcasecmp
.LVL135:
	addl	$16, %esp
	.cfi_def_cfa_offset 160
	testl	%eax, %eax
	je	.L173
	.loc 1 1166 0
	subl	$8, %esp
	.cfi_def_cfa_offset 168
	pushl	$.LC54
	.cfi_def_cfa_offset 172
	pushl	%ebx
	.cfi_def_cfa_offset 176
	call	strcasecmp
.LVL136:
	addl	$16, %esp
	.cfi_def_cfa_offset 160
	testl	%eax, %eax
	je	.L174
	.loc 1 1171 0
	subl	$8, %esp
	.cfi_def_cfa_offset 168
	pushl	$.LC55
	.cfi_def_cfa_offset 172
	pushl	%ebx
	.cfi_def_cfa_offset 176
	call	strcasecmp
.LVL137:
	addl	$16, %esp
	.cfi_def_cfa_offset 160
	testl	%eax, %eax
	jne	.L128
	.loc 1 1173 0
	movl	%esi, %edx
	movl	%ebx, %eax
	call	value_required
.LVL138:
	.loc 1 1174 0
	subl	$12, %esp
	.cfi_def_cfa_offset 172
	pushl	%esi
	.cfi_def_cfa_offset 176
	call	atoi
.LVL139:
	addl	$16, %esp
	.cfi_def_cfa_offset 160
	movl	%eax, max_age
	.p2align 4,,10
	.p2align 3
.L102:
.LVL140:
	.loc 1 1185 0
	subl	$8, %esp
	.cfi_def_cfa_offset 168
	pushl	$.LC28
	.cfi_def_cfa_offset 172
	pushl	%ebp
	.cfi_def_cfa_offset 176
	call	strspn
.LVL141:
	leal	0(%ebp,%eax), %ebx
.LVL142:
	addl	$16, %esp
	.cfi_def_cfa_offset 160
	.loc 1 1026 0
	cmpb	$0, (%ebx)
	jne	.L140
	jmp	.L94
.LVL143:
.L153:
	.loc 1 1041 0
	movl	%esi, %edx
	movl	%ebx, %eax
	call	no_value_required
.LVL144:
	.loc 1 1042 0
	movl	$1, debug
	jmp	.L102
.L154:
	.loc 1 1046 0
	movl	%esi, %edx
	movl	%ebx, %eax
	call	value_required
.LVL145:
	.loc 1 1047 0
	subl	$12, %esp
	.cfi_def_cfa_offset 172
	pushl	%esi
	.cfi_def_cfa_offset 176
	call	atoi
.LVL146:
	addl	$16, %esp
	.cfi_def_cfa_offset 160
	movw	%ax, port
	jmp	.L102
.LVL147:
.L133:
	xorl	%esi, %esi
	jmp	.L100
.LVL148:
.L155:
	.loc 1 1051 0
	movl	%esi, %edx
	movl	%ebx, %eax
	call	value_required
.LVL149:
	.loc 1 1052 0
	movl	%esi, %eax
	call	e_strdup
.LVL150:
	movl	%eax, dir
	jmp	.L102
.L156:
	.loc 1 1056 0
	movl	%esi, %edx
	movl	%ebx, %eax
	call	no_value_required
.LVL151:
	.loc 1 1057 0
	movl	$1, do_chroot
	.loc 1 1058 0
	movl	$1, no_symlink_check
	jmp	.L102
.L157:
	.loc 1 1062 0
	movl	%esi, %edx
	movl	%ebx, %eax
	call	no_value_required
.LVL152:
	.loc 1 1063 0
	movl	$0, do_chroot
	.loc 1 1064 0
	movl	$0, no_symlink_check
	jmp	.L102
.L149:
	.loc 1 1083 0
	movl	%esi, %edx
	movl	%ebx, %eax
	call	no_value_required
.LVL153:
	.loc 1 1084 0
	movl	$0, no_symlink_check
	jmp	.L102
.L158:
	.loc 1 1068 0
	movl	%esi, %edx
	movl	%ebx, %eax
	call	value_required
.LVL154:
	.loc 1 1069 0
	movl	%esi, %eax
	call	e_strdup
.LVL155:
	movl	%eax, data_dir
	jmp	.L102
.L150:
	.loc 1 1088 0
	movl	%esi, %edx
	movl	%ebx, %eax
	call	no_value_required
.LVL156:
	.loc 1 1089 0
	movl	$1, no_symlink_check
	jmp	.L102
.L159:
	.loc 1 1093 0
	movl	%esi, %edx
	movl	%ebx, %eax
	call	value_required
.LVL157:
	.loc 1 1094 0
	movl	%esi, %eax
	call	e_strdup
.LVL158:
	movl	%eax, user
	jmp	.L102
.L161:
	.loc 1 1103 0
	movl	%esi, %edx
	movl	%ebx, %eax
	call	value_required
.LVL159:
	.loc 1 1104 0
	subl	$12, %esp
	.cfi_def_cfa_offset 172
	pushl	%esi
	.cfi_def_cfa_offset 176
	call	atoi
.LVL160:
	addl	$16, %esp
	.cfi_def_cfa_offset 160
	movl	%eax, cgi_limit
	jmp	.L102
.L160:
	.loc 1 1098 0
	movl	%esi, %edx
	movl	%ebx, %eax
	call	value_required
.LVL161:
	.loc 1 1099 0
	movl	%esi, %eax
	call	e_strdup
.LVL162:
	movl	%eax, cgi_pattern
	jmp	.L102
.LVL163:
.L152:
	.loc 1 1189 0
	subl	$12, %esp
	.cfi_def_cfa_offset 172
	pushl	24(%esp)
	.cfi_def_cfa_offset 176
	call	fclose
.LVL164:
	addl	$16, %esp
	.cfi_def_cfa_offset 160
	.loc 1 1190 0
	movl	124(%esp), %eax
	xorl	%gs:20, %eax
	jne	.L175
	addl	$140, %esp
	.cfi_remember_state
	.cfi_def_cfa_offset 20
	popl	%ebx
	.cfi_restore 3
	.cfi_def_cfa_offset 16
	popl	%esi
	.cfi_restore 6
	.cfi_def_cfa_offset 12
	popl	%edi
	.cfi_restore 7
	.cfi_def_cfa_offset 8
	popl	%ebp
	.cfi_restore 5
	.cfi_def_cfa_offset 4
	ret
.LVL165:
.L163:
	.cfi_restore_state
	.loc 1 1113 0
	movl	%esi, %edx
	movl	%ebx, %eax
	call	no_value_required
.LVL166:
	.loc 1 1114 0
	movl	$1, no_empty_referers
	jmp	.L102
.L162:
	.loc 1 1108 0
	movl	%esi, %edx
	movl	%ebx, %eax
	call	value_required
.LVL167:
	.loc 1 1109 0
	movl	%esi, %eax
	call	e_strdup
.LVL168:
	movl	%eax, url_pattern
	jmp	.L102
.L164:
	.loc 1 1118 0
	movl	%esi, %edx
	movl	%ebx, %eax
	call	value_required
.LVL169:
	.loc 1 1119 0
	movl	%esi, %eax
	call	e_strdup
.LVL170:
	movl	%eax, local_pattern
	jmp	.L102
.L165:
	.loc 1 1123 0
	movl	%esi, %edx
	movl	%ebx, %eax
	call	value_required
.LVL171:
	.loc 1 1124 0
	movl	%esi, %eax
	call	e_strdup
.LVL172:
	movl	%eax, throttlefile
	jmp	.L102
.LVL173:
.L145:
	.loc 1 1011 0
	subl	$12, %esp
	.cfi_remember_state
	.cfi_def_cfa_offset 172
	pushl	%ebx
	.cfi_def_cfa_offset 176
	call	perror
.LVL174:
	.loc 1 1012 0
	movl	$1, (%esp)
	call	exit
.LVL175:
.L175:
	.cfi_restore_state
	.loc 1 1190 0
	call	__stack_chk_fail
.LVL176:
.L167:
	.loc 1 1133 0
	movl	%esi, %edx
	movl	%ebx, %eax
	call	value_required
.LVL177:
	.loc 1 1134 0
	movl	%esi, %eax
	call	e_strdup
.LVL178:
	movl	%eax, logfile
	jmp	.L102
.L166:
	.loc 1 1128 0
	movl	%esi, %edx
	movl	%ebx, %eax
	call	value_required
.LVL179:
	.loc 1 1129 0
	movl	%esi, %eax
	call	e_strdup
.LVL180:
	movl	%eax, hostname
	jmp	.L102
.L128:
	.loc 1 1178 0
	pushl	%ebx
	.cfi_remember_state
	.cfi_def_cfa_offset 164
	pushl	argv0
	.cfi_def_cfa_offset 168
	pushl	$.LC56
	.cfi_def_cfa_offset 172
	pushl	stderr
	.cfi_def_cfa_offset 176
	call	fprintf
.LVL181:
	.loc 1 1180 0
	movl	$1, (%esp)
	call	exit
.LVL182:
.L174:
	.cfi_restore_state
	.loc 1 1168 0
	movl	%esi, %edx
	movl	%ebx, %eax
	call	value_required
.LVL183:
	.loc 1 1169 0
	movl	%esi, %eax
	call	e_strdup
.LVL184:
	movl	%eax, p3p
	jmp	.L102
.L173:
	.loc 1 1163 0
	movl	%esi, %edx
	movl	%ebx, %eax
	call	value_required
.LVL185:
	.loc 1 1164 0
	movl	%esi, %eax
	call	e_strdup
.LVL186:
	movl	%eax, charset
	jmp	.L102
.L172:
	.loc 1 1158 0
	movl	%esi, %edx
	movl	%ebx, %eax
	call	value_required
.LVL187:
	.loc 1 1159 0
	movl	%esi, %eax
	call	e_strdup
.LVL188:
	movl	%eax, pidfile
	jmp	.L102
.L171:
	.loc 1 1153 0
	movl	%esi, %edx
	movl	%ebx, %eax
	call	no_value_required
.LVL189:
	.loc 1 1154 0
	movl	$0, do_global_passwd
	jmp	.L102
.L170:
	.loc 1 1148 0
	movl	%esi, %edx
	movl	%ebx, %eax
	call	no_value_required
.LVL190:
	.loc 1 1149 0
	movl	$1, do_global_passwd
	jmp	.L102
.L169:
	.loc 1 1143 0
	movl	%esi, %edx
	movl	%ebx, %eax
	call	no_value_required
.LVL191:
	.loc 1 1144 0
	movl	$0, do_vhost
	jmp	.L102
.L168:
	.loc 1 1138 0
	movl	%esi, %edx
	movl	%ebx, %eax
	call	no_value_required
.LVL192:
	.loc 1 1139 0
	movl	$1, do_vhost
	jmp	.L102
	.cfi_endproc
.LFE10:
	.size	read_config, .-read_config
	.section	.text.unlikely
.LCOLDE57:
	.text
.LHOTE57:
	.section	.rodata.str1.1
.LC58:
	.string	"nobody"
.LC59:
	.string	"iso-8859-1"
.LC60:
	.string	""
.LC61:
	.string	"-V"
.LC62:
	.string	"thttpd/2.27.0 Oct 3, 2014"
.LC63:
	.string	"-C"
.LC64:
	.string	"-p"
.LC65:
	.string	"-d"
.LC66:
	.string	"-r"
.LC67:
	.string	"-nor"
.LC68:
	.string	"-dd"
.LC69:
	.string	"-s"
.LC70:
	.string	"-nos"
.LC71:
	.string	"-u"
.LC72:
	.string	"-c"
.LC73:
	.string	"-t"
.LC74:
	.string	"-h"
.LC75:
	.string	"-l"
.LC76:
	.string	"-v"
.LC77:
	.string	"-nov"
.LC78:
	.string	"-g"
.LC79:
	.string	"-nog"
.LC80:
	.string	"-i"
.LC81:
	.string	"-T"
.LC82:
	.string	"-P"
.LC83:
	.string	"-M"
.LC84:
	.string	"-D"
	.section	.text.unlikely
.LCOLDB85:
	.text
.LHOTB85:
	.p2align 4,,15
	.type	parse_args, @function
parse_args:
.LFB8:
	.loc 1 837 0
	.cfi_startproc
.LVL193:
	pushl	%ebp
	.cfi_def_cfa_offset 8
	.cfi_offset 5, -8
	pushl	%edi
	.cfi_def_cfa_offset 12
	.cfi_offset 7, -12
	.loc 1 841 0
	movl	$80, %ecx
	.loc 1 837 0
	pushl	%esi
	.cfi_def_cfa_offset 16
	.cfi_offset 6, -16
	pushl	%ebx
	.cfi_def_cfa_offset 20
	.cfi_offset 3, -20
	subl	$28, %esp
	.cfi_def_cfa_offset 48
	.loc 1 883 0
	cmpl	$1, %eax
	.loc 1 840 0
	movl	$0, debug
	.loc 1 837 0
	movl	%eax, 4(%esp)
	movl	%edx, 8(%esp)
	.loc 1 841 0
	movw	%cx, port
	.loc 1 842 0
	movl	$0, dir
	.loc 1 843 0
	movl	$0, data_dir
	.loc 1 847 0
	movl	$0, do_chroot
	.loc 1 849 0
	movl	$0, no_log
	.loc 1 850 0
	movl	$0, no_symlink_check
	.loc 1 854 0
	movl	$0, do_vhost
	.loc 1 859 0
	movl	$0, do_global_passwd
	.loc 1 864 0
	movl	$0, cgi_pattern
	.loc 1 869 0
	movl	$0, cgi_limit
	.loc 1 871 0
	movl	$0, url_pattern
	.loc 1 872 0
	movl	$0, no_empty_referers
	.loc 1 873 0
	movl	$0, local_pattern
	.loc 1 874 0
	movl	$0, throttlefile
	.loc 1 875 0
	movl	$0, hostname
	.loc 1 876 0
	movl	$0, logfile
	.loc 1 877 0
	movl	$0, pidfile
	.loc 1 878 0
	movl	$.LC58, user
	.loc 1 879 0
	movl	$.LC59, charset
	.loc 1 880 0
	movl	$.LC60, p3p
	.loc 1 881 0
	movl	$-1, max_age
.LVL194:
	.loc 1 883 0
	jle	.L207
	movl	4(%edx), %ebx
	cmpb	$45, (%ebx)
	jne	.L205
	movl	$1, %ebp
	.loc 1 885 0
	movl	$3, %edx
.LVL195:
	jmp	.L206
.LVL196:
	.p2align 4,,10
	.p2align 3
.L223:
	.loc 1 890 0 discriminator 1
	leal	1(%ebp), %esi
	cmpl	%esi, 4(%esp)
	jg	.L221
.L181:
	.loc 1 905 0
	movl	$.LC66, %edi
	movl	%ebx, %esi
	movl	%edx, %ecx
	repz; cmpsb
	jne	.L184
	.loc 1 907 0
	movl	$1, do_chroot
	.loc 1 908 0
	movl	$1, no_symlink_check
.L182:
	.loc 1 981 0
	addl	$1, %ebp
.LVL197:
	.loc 1 883 0
	cmpl	%ebp, 4(%esp)
	jle	.L177
.L224:
	.loc 1 883 0 is_stmt 0 discriminator 1
	movl	8(%esp), %eax
	movl	(%eax,%ebp,4), %ebx
	cmpb	$45, (%ebx)
	jne	.L205
.LVL198:
.L206:
	.loc 1 885 0 is_stmt 1
	movl	%ebx, %esi
	movl	$.LC61, %edi
	movl	%edx, %ecx
	repz; cmpsb
	je	.L222
	.loc 1 890 0
	movl	$.LC63, %edi
	movl	%ebx, %esi
	movl	%edx, %ecx
	repz; cmpsb
	je	.L223
	.loc 1 895 0
	movl	$.LC64, %edi
	movl	%ebx, %esi
	movl	%edx, %ecx
	repz; cmpsb
	jne	.L183
	.loc 1 895 0 is_stmt 0 discriminator 1
	leal	1(%ebp), %esi
	cmpl	%esi, 4(%esp)
	jle	.L181
	movl	%edx, 12(%esp)
.LVL199:
	.loc 1 898 0 is_stmt 1
	subl	$12, %esp
	.cfi_def_cfa_offset 60
	movl	%esi, %ebp
	movl	20(%esp), %eax
	.loc 1 981 0
	addl	$1, %ebp
	.loc 1 898 0
	pushl	(%eax,%esi,4)
	.cfi_def_cfa_offset 64
	call	atoi
.LVL200:
	addl	$16, %esp
	.cfi_def_cfa_offset 48
	movw	%ax, port
	movl	12(%esp), %edx
.LVL201:
	.loc 1 883 0
	cmpl	%ebp, 4(%esp)
	jg	.L224
.LVL202:
.L177:
	.loc 1 983 0
	cmpl	4(%esp), %ebp
	jne	.L205
	.loc 1 985 0
	addl	$28, %esp
	.cfi_remember_state
	.cfi_def_cfa_offset 20
	popl	%ebx
	.cfi_restore 3
	.cfi_def_cfa_offset 16
	popl	%esi
	.cfi_restore 6
	.cfi_def_cfa_offset 12
	popl	%edi
	.cfi_restore 7
	.cfi_def_cfa_offset 8
	popl	%ebp
	.cfi_restore 5
	.cfi_def_cfa_offset 4
	ret
.LVL203:
	.p2align 4,,10
	.p2align 3
.L183:
	.cfi_restore_state
	.loc 1 900 0
	movl	$.LC65, %edi
	movl	%ebx, %esi
	movl	%edx, %ecx
	repz; cmpsb
	jne	.L181
	.loc 1 900 0 is_stmt 0 discriminator 1
	leal	1(%ebp), %eax
	cmpl	%eax, 4(%esp)
	jle	.L181
.LVL204:
	.loc 1 903 0 is_stmt 1
	movl	8(%esp), %ebx
	movl	%eax, %ebp
	movl	(%ebx,%eax,4), %ecx
	movl	%ecx, dir
	jmp	.L182
.LVL205:
	.p2align 4,,10
	.p2align 3
.L184:
	.loc 1 910 0
	movl	$.LC67, %edi
	movl	%ebx, %esi
	movl	$5, %ecx
	repz; cmpsb
	jne	.L185
	.loc 1 912 0
	movl	$0, do_chroot
	.loc 1 913 0
	movl	$0, no_symlink_check
	jmp	.L182
	.p2align 4,,10
	.p2align 3
.L221:
	.loc 1 893 0
	movl	8(%esp), %eax
	movl	%edx, 12(%esp)
.LVL206:
	movl	%esi, %ebp
	movl	(%eax,%esi,4), %eax
	call	read_config
.LVL207:
	movl	12(%esp), %edx
	jmp	.L182
.LVL208:
	.p2align 4,,10
	.p2align 3
.L185:
	.loc 1 915 0
	movl	$.LC68, %edi
	movl	$4, %ecx
	movl	%ebx, %esi
	repz; cmpsb
	jne	.L186
	.loc 1 915 0 is_stmt 0 discriminator 1
	leal	1(%ebp), %eax
	cmpl	%eax, 4(%esp)
	jle	.L186
.LVL209:
	.loc 1 918 0 is_stmt 1
	movl	8(%esp), %ebx
	movl	%eax, %ebp
	movl	(%ebx,%eax,4), %ecx
	movl	%ecx, data_dir
	jmp	.L182
.LVL210:
	.p2align 4,,10
	.p2align 3
.L186:
	.loc 1 920 0
	movl	$.LC69, %edi
	movl	%ebx, %esi
	movl	%edx, %ecx
	repz; cmpsb
	jne	.L187
	.loc 1 921 0
	movl	$0, no_symlink_check
	jmp	.L182
	.p2align 4,,10
	.p2align 3
.L187:
	.loc 1 922 0
	movl	$.LC70, %edi
	movl	%ebx, %esi
	movl	$5, %ecx
	repz; cmpsb
	je	.L225
	movl	%edx, 12(%esp)
	.loc 1 924 0
	pushl	%eax
	.cfi_def_cfa_offset 52
	pushl	%eax
	.cfi_def_cfa_offset 56
	pushl	$.LC71
	.cfi_def_cfa_offset 60
	pushl	%ebx
	.cfi_def_cfa_offset 64
	call	strcmp
.LVL211:
	addl	$16, %esp
	.cfi_def_cfa_offset 48
	testl	%eax, %eax
	movl	12(%esp), %edx
	jne	.L189
	.loc 1 924 0 is_stmt 0 discriminator 1
	leal	1(%ebp), %eax
	cmpl	%eax, 4(%esp)
	jg	.L226
	movl	%edx, 12(%esp)
	.loc 1 934 0 is_stmt 1
	pushl	%ecx
	.cfi_def_cfa_offset 52
	pushl	%ecx
	.cfi_def_cfa_offset 56
	pushl	$.LC73
	.cfi_def_cfa_offset 60
	pushl	%ebx
	.cfi_def_cfa_offset 64
	call	strcmp
.LVL212:
	addl	$16, %esp
	.cfi_def_cfa_offset 48
	testl	%eax, %eax
	movl	12(%esp), %edx
	jne	.L193
.L195:
	movl	%edx, 12(%esp)
	.loc 1 944 0
	pushl	%ecx
	.cfi_def_cfa_offset 52
	pushl	%ecx
	.cfi_def_cfa_offset 56
	pushl	$.LC75
	.cfi_def_cfa_offset 60
	pushl	%ebx
	.cfi_def_cfa_offset 64
	call	strcmp
.LVL213:
	addl	$16, %esp
	.cfi_def_cfa_offset 48
	testl	%eax, %eax
	movl	12(%esp), %edx
	jne	.L194
	.loc 1 944 0 is_stmt 0 discriminator 1
	leal	1(%ebp), %eax
	cmpl	%eax, 4(%esp)
	jg	.L227
.L194:
	movl	%edx, 12(%esp)
	.loc 1 949 0 is_stmt 1
	pushl	%edx
	.cfi_def_cfa_offset 52
	pushl	%edx
	.cfi_def_cfa_offset 56
	pushl	$.LC76
	.cfi_def_cfa_offset 60
	pushl	%ebx
	.cfi_def_cfa_offset 64
	call	strcmp
.LVL214:
	addl	$16, %esp
	.cfi_def_cfa_offset 48
	testl	%eax, %eax
	movl	12(%esp), %edx
	jne	.L196
	.loc 1 950 0
	movl	$1, do_vhost
	jmp	.L182
.L225:
	.loc 1 923 0
	movl	$1, no_symlink_check
	jmp	.L182
.L189:
	movl	%edx, 12(%esp)
	.loc 1 929 0
	pushl	%eax
	.cfi_def_cfa_offset 52
	pushl	%eax
	.cfi_def_cfa_offset 56
	pushl	$.LC72
	.cfi_def_cfa_offset 60
	pushl	%ebx
	.cfi_def_cfa_offset 64
	call	strcmp
.LVL215:
	addl	$16, %esp
	.cfi_def_cfa_offset 48
	testl	%eax, %eax
	movl	12(%esp), %edx
	jne	.L191
	.loc 1 929 0 is_stmt 0 discriminator 1
	leal	1(%ebp), %eax
	cmpl	%eax, 4(%esp)
	jle	.L192
.LVL216:
	.loc 1 932 0 is_stmt 1
	movl	8(%esp), %ebx
	movl	%eax, %ebp
	movl	(%ebx,%eax,4), %ecx
	movl	%ecx, cgi_pattern
	jmp	.L182
.LVL217:
.L191:
	movl	%edx, 12(%esp)
	.loc 1 934 0
	pushl	%edi
	.cfi_def_cfa_offset 52
	pushl	%edi
	.cfi_def_cfa_offset 56
	pushl	$.LC73
	.cfi_def_cfa_offset 60
	pushl	%ebx
	.cfi_def_cfa_offset 64
	call	strcmp
.LVL218:
	addl	$16, %esp
	.cfi_def_cfa_offset 48
	testl	%eax, %eax
	movl	12(%esp), %edx
	jne	.L193
	.loc 1 934 0 is_stmt 0 discriminator 1
	leal	1(%ebp), %eax
	cmpl	%eax, 4(%esp)
	jle	.L194
.LVL219:
	.loc 1 937 0 is_stmt 1
	movl	8(%esp), %ebx
	movl	%eax, %ebp
	movl	(%ebx,%eax,4), %ecx
	movl	%ecx, throttlefile
	jmp	.L182
.LVL220:
.L193:
	movl	%edx, 12(%esp)
	.loc 1 939 0
	pushl	%esi
	.cfi_def_cfa_offset 52
	pushl	%esi
	.cfi_def_cfa_offset 56
	pushl	$.LC74
	.cfi_def_cfa_offset 60
	pushl	%ebx
	.cfi_def_cfa_offset 64
	call	strcmp
.LVL221:
	addl	$16, %esp
	.cfi_def_cfa_offset 48
	testl	%eax, %eax
	movl	12(%esp), %edx
	jne	.L195
	.loc 1 939 0 is_stmt 0 discriminator 1
	leal	1(%ebp), %eax
	cmpl	%eax, 4(%esp)
	jle	.L194
.LVL222:
	.loc 1 942 0 is_stmt 1
	movl	8(%esp), %ebx
	movl	%eax, %ebp
	movl	(%ebx,%eax,4), %ecx
	movl	%ecx, hostname
	jmp	.L182
.LVL223:
.L226:
	.loc 1 927 0
	movl	8(%esp), %ebx
	movl	%eax, %ebp
	movl	(%ebx,%eax,4), %ecx
	movl	%ecx, user
	jmp	.L182
.LVL224:
.L192:
	movl	%edx, 12(%esp)
	.loc 1 939 0
	pushl	%edx
	.cfi_def_cfa_offset 52
	pushl	%edx
	.cfi_def_cfa_offset 56
	pushl	$.LC74
	.cfi_def_cfa_offset 60
	pushl	%ebx
	.cfi_def_cfa_offset 64
	call	strcmp
.LVL225:
	addl	$16, %esp
	.cfi_def_cfa_offset 48
	testl	%eax, %eax
	movl	12(%esp), %edx
	je	.L194
	jmp	.L195
.L196:
	movl	%edx, 12(%esp)
	.loc 1 951 0
	pushl	%eax
	.cfi_def_cfa_offset 52
	pushl	%eax
	.cfi_def_cfa_offset 56
	pushl	$.LC77
	.cfi_def_cfa_offset 60
	pushl	%ebx
	.cfi_def_cfa_offset 64
	call	strcmp
.LVL226:
	addl	$16, %esp
	.cfi_def_cfa_offset 48
	testl	%eax, %eax
	movl	12(%esp), %edx
	je	.L228
	movl	%edx, 12(%esp)
	.loc 1 953 0
	pushl	%eax
	.cfi_def_cfa_offset 52
	pushl	%eax
	.cfi_def_cfa_offset 56
	pushl	$.LC78
	.cfi_def_cfa_offset 60
	pushl	%ebx
	.cfi_def_cfa_offset 64
	call	strcmp
.LVL227:
	addl	$16, %esp
	.cfi_def_cfa_offset 48
	testl	%eax, %eax
	movl	12(%esp), %edx
	jne	.L198
	.loc 1 954 0
	movl	$1, do_global_passwd
	jmp	.L182
.L227:
.LVL228:
	.loc 1 947 0
	movl	8(%esp), %ebx
	movl	%eax, %ebp
	movl	(%ebx,%eax,4), %ecx
	movl	%ecx, logfile
	jmp	.L182
.LVL229:
.L228:
	.loc 1 952 0
	movl	$0, do_vhost
	jmp	.L182
.LVL230:
.L207:
	.loc 1 882 0
	movl	$1, %ebp
	jmp	.L177
.LVL231:
.L198:
	movl	%edx, 12(%esp)
	.loc 1 955 0
	pushl	%eax
	.cfi_def_cfa_offset 52
	pushl	%eax
	.cfi_def_cfa_offset 56
	pushl	$.LC79
	.cfi_def_cfa_offset 60
	pushl	%ebx
	.cfi_def_cfa_offset 64
	call	strcmp
.LVL232:
	addl	$16, %esp
	.cfi_def_cfa_offset 48
	testl	%eax, %eax
	movl	12(%esp), %edx
	jne	.L199
	.loc 1 956 0
	movl	$0, do_global_passwd
	jmp	.L182
.L222:
	.loc 1 887 0
	subl	$12, %esp
	.cfi_remember_state
	.cfi_def_cfa_offset 60
	pushl	$.LC62
	.cfi_def_cfa_offset 64
	call	puts
.LVL233:
	.loc 1 888 0
	movl	$0, (%esp)
	call	exit
.LVL234:
.L199:
	.cfi_restore_state
	movl	%edx, 12(%esp)
	.loc 1 957 0
	pushl	%eax
	.cfi_def_cfa_offset 52
	pushl	%eax
	.cfi_def_cfa_offset 56
	pushl	$.LC80
	.cfi_def_cfa_offset 60
	pushl	%ebx
	.cfi_def_cfa_offset 64
	call	strcmp
.LVL235:
	addl	$16, %esp
	.cfi_def_cfa_offset 48
	testl	%eax, %eax
	movl	12(%esp), %edx
	jne	.L200
	.loc 1 957 0 is_stmt 0 discriminator 1
	leal	1(%ebp), %eax
	cmpl	%eax, 4(%esp)
	jle	.L201
.LVL236:
	.loc 1 960 0 is_stmt 1
	movl	8(%esp), %ebx
	movl	%eax, %ebp
	movl	(%ebx,%eax,4), %ecx
	movl	%ecx, pidfile
	jmp	.L182
.LVL237:
.L200:
	movl	%edx, 12(%esp)
	.loc 1 962 0
	pushl	%eax
	.cfi_def_cfa_offset 52
	pushl	%eax
	.cfi_def_cfa_offset 56
	pushl	$.LC81
	.cfi_def_cfa_offset 60
	pushl	%ebx
	.cfi_def_cfa_offset 64
	call	strcmp
.LVL238:
	addl	$16, %esp
	.cfi_def_cfa_offset 48
	testl	%eax, %eax
	movl	12(%esp), %edx
	jne	.L202
	.loc 1 962 0 is_stmt 0 discriminator 1
	leal	1(%ebp), %eax
	cmpl	%eax, 4(%esp)
	jle	.L203
.LVL239:
	.loc 1 965 0 is_stmt 1
	movl	8(%esp), %ebx
	movl	%eax, %ebp
	movl	(%ebx,%eax,4), %ecx
	movl	%ecx, charset
	jmp	.L182
.LVL240:
.L202:
	movl	%edx, 12(%esp)
	.loc 1 967 0
	pushl	%eax
	.cfi_def_cfa_offset 52
	pushl	%eax
	.cfi_def_cfa_offset 56
	pushl	$.LC82
	.cfi_def_cfa_offset 60
	pushl	%ebx
	.cfi_def_cfa_offset 64
	call	strcmp
.LVL241:
	addl	$16, %esp
	.cfi_def_cfa_offset 48
	testl	%eax, %eax
	movl	12(%esp), %edx
	jne	.L204
	.loc 1 967 0 is_stmt 0 discriminator 1
	leal	1(%ebp), %eax
	cmpl	%eax, 4(%esp)
	jle	.L203
.LVL242:
	.loc 1 970 0 is_stmt 1
	movl	8(%esp), %ebx
	movl	%eax, %ebp
	movl	(%ebx,%eax,4), %ecx
	movl	%ecx, p3p
	jmp	.L182
.LVL243:
.L201:
	movl	%edx, 12(%esp)
	.loc 1 967 0
	pushl	%eax
	.cfi_def_cfa_offset 52
	pushl	%eax
	.cfi_def_cfa_offset 56
	pushl	$.LC82
	.cfi_def_cfa_offset 60
	pushl	%ebx
	.cfi_def_cfa_offset 64
	call	strcmp
.LVL244:
	addl	$16, %esp
	.cfi_def_cfa_offset 48
	testl	%eax, %eax
	movl	12(%esp), %edx
	jne	.L204
.L203:
	movl	%edx, 12(%esp)
	.loc 1 977 0
	pushl	%esi
	.cfi_def_cfa_offset 52
	pushl	%esi
	.cfi_def_cfa_offset 56
	pushl	$.LC84
	.cfi_def_cfa_offset 60
	pushl	%ebx
	.cfi_def_cfa_offset 64
	call	strcmp
.LVL245:
	addl	$16, %esp
	.cfi_def_cfa_offset 48
	testl	%eax, %eax
	jne	.L205
	.loc 1 978 0
	movl	$1, debug
	movl	12(%esp), %edx
	jmp	.L182
.L204:
	movl	%edx, 12(%esp)
	.loc 1 972 0
	pushl	%edi
	.cfi_def_cfa_offset 52
	pushl	%edi
	.cfi_def_cfa_offset 56
	pushl	$.LC83
	.cfi_def_cfa_offset 60
	pushl	%ebx
	.cfi_def_cfa_offset 64
	call	strcmp
.LVL246:
	addl	$16, %esp
	.cfi_def_cfa_offset 48
	testl	%eax, %eax
	movl	12(%esp), %edx
	jne	.L203
	.loc 1 972 0 is_stmt 0 discriminator 1
	leal	1(%ebp), %esi
	cmpl	%esi, 4(%esp)
	jle	.L203
.LVL247:
	.loc 1 975 0 is_stmt 1
	subl	$12, %esp
	.cfi_def_cfa_offset 60
	movl	%esi, %ebp
	movl	20(%esp), %eax
	pushl	(%eax,%esi,4)
	.cfi_def_cfa_offset 64
	call	atoi
.LVL248:
	addl	$16, %esp
	.cfi_def_cfa_offset 48
	movl	%eax, max_age
	movl	12(%esp), %edx
	jmp	.L182
.LVL249:
.L205:
	.loc 1 980 0
	call	usage
.LVL250:
	.cfi_endproc
.LFE8:
	.size	parse_args, .-parse_args
	.section	.text.unlikely
.LCOLDE85:
	.text
.LHOTE85:
	.section	.rodata.str1.1
.LC86:
	.string	"%.80s - %m"
.LC87:
	.string	" %4900[^ \t] %ld-%ld"
.LC88:
	.string	" %4900[^ \t] %ld"
	.section	.rodata.str1.4
	.align 4
.LC89:
	.string	"unparsable line in %.80s - %.80s"
	.align 4
.LC90:
	.string	"%s: unparsable line in %.80s - %.80s\n"
	.section	.rodata.str1.1
.LC91:
	.string	"|/"
	.section	.rodata.str1.4
	.align 4
.LC92:
	.string	"out of memory allocating a throttletab"
	.align 4
.LC93:
	.string	"%s: out of memory allocating a throttletab\n"
	.section	.text.unlikely
.LCOLDB94:
	.text
.LHOTB94:
	.p2align 4,,15
	.type	read_throttlefile, @function
read_throttlefile:
.LFB15:
	.loc 1 1370 0
	.cfi_startproc
.LVL251:
	pushl	%ebp
	.cfi_def_cfa_offset 8
	.cfi_offset 5, -8
	pushl	%edi
	.cfi_def_cfa_offset 12
	.cfi_offset 7, -12
	pushl	%esi
	.cfi_def_cfa_offset 16
	.cfi_offset 6, -16
	pushl	%ebx
	.cfi_def_cfa_offset 20
	.cfi_offset 3, -20
	subl	$10068, %esp
	.cfi_def_cfa_offset 10088
	.loc 1 1370 0
	movl	%gs:20, %esi
	movl	%esi, 10052(%esp)
	xorl	%esi, %esi
	movl	%eax, 20(%esp)
	.loc 1 1379 0
	pushl	$.LC27
	.cfi_def_cfa_offset 10092
	pushl	%eax
	.cfi_def_cfa_offset 10096
	call	fopen
.LVL252:
	movl	%eax, 24(%esp)
.LVL253:
	.loc 1 1380 0
	addl	$16, %esp
	.cfi_def_cfa_offset 10080
	testl	%eax, %eax
	je	.L278
	.loc 1 1387 0
	subl	$8, %esp
	.cfi_def_cfa_offset 10088
	pushl	$0
	.cfi_def_cfa_offset 10092
	leal	48(%esp), %eax
.LVL254:
	pushl	%eax
	.cfi_def_cfa_offset 10096
	call	gettimeofday
.LVL255:
	.loc 1 1389 0
	addl	$16, %esp
	.cfi_def_cfa_offset 10080
	leal	44(%esp), %edi
	.loc 1 1408 0
	leal	28(%esp), %esi
	.p2align 4,,10
	.p2align 3
.L252:
	.loc 1 1389 0
	subl	$4, %esp
	.cfi_def_cfa_offset 10084
	pushl	12(%esp)
	.cfi_def_cfa_offset 10088
	pushl	$5000
	.cfi_def_cfa_offset 10092
	pushl	%edi
	.cfi_def_cfa_offset 10096
	call	fgets
.LVL256:
	addl	$16, %esp
	.cfi_def_cfa_offset 10080
	testl	%eax, %eax
	je	.L279
	.loc 1 1392 0
	subl	$8, %esp
	.cfi_def_cfa_offset 10088
	pushl	$35
	.cfi_def_cfa_offset 10092
	pushl	%edi
	.cfi_def_cfa_offset 10096
	call	strchr
.LVL257:
	addl	$16, %esp
	.cfi_def_cfa_offset 10080
.LVL258:
	.loc 1 1393 0
	testl	%eax, %eax
	je	.L232
	.loc 1 1394 0
	movb	$0, (%eax)
.L232:
	.loc 1 1397 0
	movl	%edi, %eax
.LVL259:
.L233:
	movl	(%eax), %ecx
	addl	$4, %eax
	leal	-16843009(%ecx), %edx
	notl	%ecx
	andl	%ecx, %edx
	andl	$-2139062144, %edx
	je	.L233
	movl	%edx, %ecx
	shrl	$16, %ecx
	testl	$32896, %edx
	cmove	%ecx, %edx
	leal	2(%eax), %ecx
	cmove	%ecx, %eax
	addb	%dl, %dl
	sbbl	$3, %eax
	subl	%edi, %eax
.LVL260:
	.loc 1 1398 0
	cmpl	$0, %eax
	jle	.L235
	.loc 1 1399 0
	subl	$1, %eax
.LVL261:
	movzbl	44(%esp,%eax), %edx
	jmp	.L276
.LVL262:
	.p2align 4,,10
	.p2align 3
.L264:
	.loc 1 1398 0
	testl	%eax, %eax
	.loc 1 1401 0
	movb	$0, (%edi,%eax)
	.loc 1 1398 0
	je	.L252
	.loc 1 1399 0 discriminator 1
	subl	$1, %eax
.LVL263:
	movzbl	(%edi,%eax), %edx
.LVL264:
.L276:
	.loc 1 1400 0 discriminator 1
	cmpb	$13, %dl
	sete	%bl
	.loc 1 1399 0 discriminator 1
	cmpb	$32, %dl
	sete	%cl
	.loc 1 1400 0 discriminator 1
	orb	%cl, %bl
	jne	.L264
	.loc 1 1399 0
	subl	$9, %edx
	.loc 1 1400 0
	cmpb	$1, %dl
	jbe	.L264
.L241:
	.loc 1 1408 0
	subl	$12, %esp
	.cfi_def_cfa_offset 10092
	pushl	%esi
	.cfi_def_cfa_offset 10096
	leal	48(%esp), %eax
	pushl	%eax
	.cfi_def_cfa_offset 10100
	leal	5064(%esp), %ebx
	pushl	%ebx
	.cfi_def_cfa_offset 10104
	pushl	$.LC87
	.cfi_def_cfa_offset 10108
	pushl	%edi
	.cfi_def_cfa_offset 10112
	call	__isoc99_sscanf
.LVL265:
	addl	$32, %esp
	.cfi_def_cfa_offset 10080
	cmpl	$3, %eax
	je	.L237
	.loc 1 1410 0
	pushl	%esi
	.cfi_def_cfa_offset 10084
	pushl	%ebx
	.cfi_def_cfa_offset 10088
	pushl	$.LC88
	.cfi_def_cfa_offset 10092
	pushl	%edi
	.cfi_def_cfa_offset 10096
	call	__isoc99_sscanf
.LVL266:
	addl	$16, %esp
	.cfi_def_cfa_offset 10080
	cmpl	$2, %eax
	jne	.L242
	.loc 1 1411 0
	movl	$0, 32(%esp)
	.p2align 4,,10
	.p2align 3
.L237:
	.loc 1 1423 0
	cmpb	$47, 5044(%esp)
	jne	.L245
	jmp	.L280
.LVL267:
	.p2align 4,,10
	.p2align 3
.L246:
	.loc 1 1426 0
	leal	2(%eax), %edx
	subl	$8, %esp
	.cfi_def_cfa_offset 10088
	addl	$1, %eax
.LVL268:
	pushl	%edx
	.cfi_def_cfa_offset 10092
	pushl	%eax
	.cfi_def_cfa_offset 10096
	call	strcpy
.LVL269:
	addl	$16, %esp
	.cfi_def_cfa_offset 10080
.L245:
	.loc 1 1425 0
	subl	$8, %esp
	.cfi_def_cfa_offset 10088
	pushl	$.LC91
	.cfi_def_cfa_offset 10092
	pushl	%ebx
	.cfi_def_cfa_offset 10096
	call	strstr
.LVL270:
	addl	$16, %esp
	.cfi_def_cfa_offset 10080
.LVL271:
	testl	%eax, %eax
	jne	.L246
	.loc 1 1429 0
	movl	numthrottles, %edx
	movl	maxthrottles, %eax
.LVL272:
	cmpl	%eax, %edx
	jl	.L247
	.loc 1 1431 0
	testl	%eax, %eax
	jne	.L248
	.loc 1 1434 0
	subl	$12, %esp
	.cfi_def_cfa_offset 10092
	.loc 1 1433 0
	movl	$100, maxthrottles
	.loc 1 1434 0
	pushl	$2400
	.cfi_def_cfa_offset 10096
	call	malloc
.LVL273:
	addl	$16, %esp
	.cfi_def_cfa_offset 10080
	movl	%eax, throttles
.L249:
	.loc 1 1441 0
	testl	%eax, %eax
	je	.L250
	movl	numthrottles, %edx
.L251:
	.loc 1 1452 0
	leal	(%edx,%edx,2), %edx
	leal	(%eax,%edx,8), %ebp
	movl	%ebx, %eax
	call	e_strdup
.LVL274:
	movl	%eax, 0(%ebp)
	.loc 1 1453 0
	movl	numthrottles, %eax
	movl	throttles, %edx
	leal	(%eax,%eax,2), %ecx
	.loc 1 1459 0
	addl	$1, %eax
	movl	%eax, numthrottles
	.loc 1 1453 0
	leal	(%edx,%ecx,8), %edx
	movl	28(%esp), %ecx
	.loc 1 1455 0
	movl	$0, 12(%edx)
	.loc 1 1456 0
	movl	$0, 16(%edx)
	.loc 1 1453 0
	movl	%ecx, 4(%edx)
	.loc 1 1454 0
	movl	32(%esp), %ecx
	.loc 1 1457 0
	movl	$0, 20(%edx)
	.loc 1 1454 0
	movl	%ecx, 8(%edx)
	jmp	.L252
.LVL275:
.L235:
	.loc 1 1404 0
	je	.L252
	jmp	.L241
.LVL276:
.L242:
	.loc 1 1414 0
	pushl	%edi
	.cfi_def_cfa_offset 10084
	movl	16(%esp), %ebx
	pushl	%ebx
	.cfi_def_cfa_offset 10088
	pushl	$.LC89
	.cfi_def_cfa_offset 10092
	pushl	$2
	.cfi_def_cfa_offset 10096
	call	syslog
.LVL277:
	.loc 1 1416 0
	movl	%edi, (%esp)
	pushl	%ebx
	.cfi_def_cfa_offset 10100
	pushl	argv0
	.cfi_def_cfa_offset 10104
	pushl	$.LC90
	.cfi_def_cfa_offset 10108
	pushl	stderr
	.cfi_def_cfa_offset 10112
	call	fprintf
.LVL278:
	.loc 1 1419 0
	addl	$32, %esp
	.cfi_def_cfa_offset 10080
	jmp	.L252
.L248:
	.loc 1 1438 0
	leal	(%eax,%eax), %edx
	.loc 1 1439 0
	subl	$8, %esp
	.cfi_def_cfa_offset 10088
	leal	(%edx,%eax,4), %eax
	.loc 1 1438 0
	movl	%edx, maxthrottles
	.loc 1 1439 0
	sall	$3, %eax
	pushl	%eax
	.cfi_def_cfa_offset 10092
	pushl	throttles
	.cfi_def_cfa_offset 10096
	call	realloc
.LVL279:
	addl	$16, %esp
	.cfi_def_cfa_offset 10080
	movl	%eax, throttles
	jmp	.L249
.L247:
	movl	throttles, %eax
	jmp	.L251
.L279:
	.loc 1 1461 0
	subl	$12, %esp
	.cfi_def_cfa_offset 10092
	pushl	20(%esp)
	.cfi_def_cfa_offset 10096
	call	fclose
.LVL280:
	addl	$16, %esp
	.cfi_def_cfa_offset 10080
	.loc 1 1462 0
	movl	10044(%esp), %eax
	xorl	%gs:20, %eax
	jne	.L281
	addl	$10060, %esp
	.cfi_remember_state
	.cfi_def_cfa_offset 20
	popl	%ebx
	.cfi_restore 3
	.cfi_def_cfa_offset 16
	popl	%esi
	.cfi_restore 6
	.cfi_def_cfa_offset 12
	popl	%edi
	.cfi_restore 7
	.cfi_def_cfa_offset 8
	popl	%ebp
	.cfi_restore 5
	.cfi_def_cfa_offset 4
	ret
.L280:
	.cfi_restore_state
	.loc 1 1424 0
	pushl	%edx
	.cfi_def_cfa_offset 10084
	pushl	%edx
	.cfi_def_cfa_offset 10088
	leal	5053(%esp), %eax
	pushl	%eax
	.cfi_def_cfa_offset 10092
	pushl	%ebx
	.cfi_def_cfa_offset 10096
	call	strcpy
.LVL281:
	addl	$16, %esp
	.cfi_def_cfa_offset 10080
	jmp	.L245
.LVL282:
.L278:
	.loc 1 1382 0
	pushl	%ecx
	.cfi_remember_state
	.cfi_def_cfa_offset 10084
	movl	16(%esp), %esi
	pushl	%esi
	.cfi_def_cfa_offset 10088
	pushl	$.LC86
	.cfi_def_cfa_offset 10092
	pushl	$2
	.cfi_def_cfa_offset 10096
	call	syslog
.LVL283:
	.loc 1 1383 0
	movl	%esi, (%esp)
	call	perror
.LVL284:
	.loc 1 1384 0
	movl	$1, (%esp)
	call	exit
.LVL285:
.L281:
	.cfi_restore_state
	.loc 1 1462 0
	call	__stack_chk_fail
.LVL286:
.L250:
	.loc 1 1443 0
	pushl	%eax
	.cfi_def_cfa_offset 10084
	pushl	%eax
	.cfi_def_cfa_offset 10088
	pushl	$.LC92
	.cfi_def_cfa_offset 10092
	pushl	$2
	.cfi_def_cfa_offset 10096
	call	syslog
.LVL287:
	.loc 1 1444 0
	addl	$12, %esp
	.cfi_def_cfa_offset 10084
	pushl	argv0
	.cfi_def_cfa_offset 10088
	pushl	$.LC93
	.cfi_def_cfa_offset 10092
	pushl	stderr
	.cfi_def_cfa_offset 10096
	call	fprintf
.LVL288:
	.loc 1 1447 0
	movl	$1, (%esp)
	call	exit
.LVL289:
	.cfi_endproc
.LFE15:
	.size	read_throttlefile, .-read_throttlefile
	.section	.text.unlikely
.LCOLDE94:
	.text
.LHOTE94:
	.section	.rodata.str1.1
.LC95:
	.string	"-"
.LC96:
	.string	"re-opening logfile"
.LC97:
	.string	"a"
.LC98:
	.string	"re-opening %.80s - %m"
	.section	.text.unlikely
.LCOLDB99:
	.text
.LHOTB99:
	.p2align 4,,15
	.type	re_open_logfile, @function
re_open_logfile:
.LFB6:
	.loc 1 327 0
	.cfi_startproc
	.loc 1 331 0
	movl	no_log, %eax
	testl	%eax, %eax
	jne	.L295
	.loc 1 331 0 is_stmt 0 discriminator 1
	movl	hs, %eax
	testl	%eax, %eax
	je	.L295
	.loc 1 327 0 is_stmt 1
	pushl	%edi
	.cfi_def_cfa_offset 8
	.cfi_offset 7, -8
	pushl	%esi
	.cfi_def_cfa_offset 12
	.cfi_offset 6, -12
	subl	$4, %esp
	.cfi_def_cfa_offset 16
	.loc 1 335 0
	movl	logfile, %esi
	testl	%esi, %esi
	je	.L282
	.loc 1 335 0 is_stmt 0 discriminator 1
	movl	$.LC95, %edi
	movl	$2, %ecx
	repz; cmpsb
	jne	.L296
.L282:
	.loc 1 348 0 is_stmt 1
	addl	$4, %esp
	.cfi_def_cfa_offset 12
	popl	%esi
	.cfi_restore 6
	.cfi_def_cfa_offset 8
	popl	%edi
	.cfi_restore 7
	.cfi_def_cfa_offset 4
.L295:
	rep; ret
	.p2align 4,,10
	.p2align 3
.L296:
	.cfi_def_cfa_offset 16
	.cfi_offset 6, -12
	.cfi_offset 7, -8
	.loc 1 337 0
	subl	$8, %esp
	.cfi_def_cfa_offset 24
	pushl	$.LC96
	.cfi_def_cfa_offset 28
	pushl	$5
	.cfi_def_cfa_offset 32
	call	syslog
	.loc 1 338 0
	popl	%ecx
	.cfi_def_cfa_offset 28
	popl	%esi
	.cfi_def_cfa_offset 24
	pushl	$.LC97
	.cfi_def_cfa_offset 28
	pushl	logfile
	.cfi_def_cfa_offset 32
	call	fopen
	.loc 1 339 0
	popl	%edi
	.cfi_def_cfa_offset 28
	.loc 1 338 0
	movl	%eax, %esi
	.loc 1 339 0
	popl	%eax
	.cfi_def_cfa_offset 24
	pushl	$384
	.cfi_def_cfa_offset 28
	pushl	logfile
	.cfi_def_cfa_offset 32
	call	chmod
	.loc 1 340 0
	addl	$16, %esp
	.cfi_def_cfa_offset 16
	testl	%eax, %eax
	jne	.L286
	testl	%esi, %esi
	je	.L286
	.loc 1 345 0
	subl	$12, %esp
	.cfi_def_cfa_offset 28
	pushl	%esi
	.cfi_def_cfa_offset 32
	call	fileno
	addl	$12, %esp
	.cfi_def_cfa_offset 20
	pushl	$1
	.cfi_def_cfa_offset 24
	pushl	$2
	.cfi_def_cfa_offset 28
	pushl	%eax
	.cfi_def_cfa_offset 32
	call	fcntl
	.loc 1 346 0
	popl	%eax
	.cfi_def_cfa_offset 28
	popl	%edx
	.cfi_def_cfa_offset 24
	pushl	%esi
	.cfi_def_cfa_offset 28
	pushl	hs
	.cfi_def_cfa_offset 32
	call	httpd_set_logfp
	addl	$16, %esp
	.cfi_def_cfa_offset 16
	.loc 1 348 0
	addl	$4, %esp
	.cfi_remember_state
	.cfi_def_cfa_offset 12
	popl	%esi
	.cfi_restore 6
	.cfi_def_cfa_offset 8
	popl	%edi
	.cfi_restore 7
	.cfi_def_cfa_offset 4
	jmp	.L295
	.p2align 4,,10
	.p2align 3
.L286:
	.cfi_restore_state
	.loc 1 342 0
	subl	$4, %esp
	.cfi_def_cfa_offset 20
	pushl	logfile
	.cfi_def_cfa_offset 24
	pushl	$.LC98
	.cfi_def_cfa_offset 28
	pushl	$2
	.cfi_def_cfa_offset 32
	call	syslog
	.loc 1 343 0
	addl	$16, %esp
	.cfi_def_cfa_offset 16
	jmp	.L282
	.cfi_endproc
.LFE6:
	.size	re_open_logfile, .-re_open_logfile
	.section	.text.unlikely
.LCOLDE99:
	.text
.LHOTE99:
	.section	.rodata.str1.1
.LC100:
	.string	"too many connections!"
	.section	.rodata.str1.4
	.align 4
.LC101:
	.string	"the connects free list is messed up"
	.align 4
.LC102:
	.string	"out of memory allocating an httpd_conn"
	.section	.text.unlikely
.LCOLDB103:
	.text
.LHOTB103:
	.p2align 4,,15
	.type	handle_newconnect, @function
handle_newconnect:
.LFB17:
	.loc 1 1505 0
	.cfi_startproc
.LVL290:
	pushl	%edi
	.cfi_def_cfa_offset 8
	.cfi_offset 7, -8
	pushl	%esi
	.cfi_def_cfa_offset 12
	.cfi_offset 6, -12
	movl	%eax, %edi
	pushl	%ebx
	.cfi_def_cfa_offset 16
	.cfi_offset 3, -16
	movl	%edx, %esi
	subl	$16, %esp
	.cfi_def_cfa_offset 32
	movl	num_connects, %eax
.LVL291:
.L306:
	.loc 1 1516 0
	cmpl	%eax, max_connects
	jle	.L316
	.loc 1 1527 0
	movl	first_free_connect, %ecx
	cmpl	$-1, %ecx
	je	.L300
	.loc 1 1527 0 is_stmt 0 discriminator 1
	leal	(%ecx,%ecx,2), %ebx
	sall	$5, %ebx
	addl	connects, %ebx
	movl	(%ebx), %edx
	testl	%edx, %edx
	jne	.L300
.LVL292:
	.loc 1 1534 0 is_stmt 1
	movl	8(%ebx), %eax
	testl	%eax, %eax
	je	.L317
.L302:
	.loc 1 1547 0
	subl	$4, %esp
	.cfi_def_cfa_offset 36
	pushl	%eax
	.cfi_def_cfa_offset 40
	pushl	%esi
	.cfi_def_cfa_offset 44
	pushl	hs
	.cfi_def_cfa_offset 48
	call	httpd_get_conn
.LVL293:
	addl	$16, %esp
	.cfi_def_cfa_offset 32
	testl	%eax, %eax
	je	.L305
	cmpl	$2, %eax
	jne	.L318
	.loc 1 1558 0
	movl	$1, %eax
.LVL294:
.L299:
	.loc 1 1581 0
	addl	$16, %esp
	.cfi_remember_state
	.cfi_def_cfa_offset 16
	popl	%ebx
	.cfi_restore 3
	.cfi_def_cfa_offset 12
	popl	%esi
	.cfi_restore 6
	.cfi_def_cfa_offset 8
.LVL295:
	popl	%edi
	.cfi_restore 7
	.cfi_def_cfa_offset 4
.LVL296:
	ret
.LVL297:
	.p2align 4,,10
	.p2align 3
.L318:
	.cfi_restore_state
	.loc 1 1562 0
	movl	4(%ebx), %eax
	.loc 1 1573 0
	subl	$12, %esp
	.cfi_def_cfa_offset 44
	.loc 1 1560 0
	movl	$1, (%ebx)
	.loc 1 1563 0
	movl	$-1, 4(%ebx)
	.loc 1 1564 0
	addl	$1, num_connects
.LVL298:
	.loc 1 1562 0
	movl	%eax, first_free_connect
	.loc 1 1566 0
	movl	(%edi), %eax
	.loc 1 1567 0
	movl	$0, 72(%ebx)
	.loc 1 1568 0
	movl	$0, 76(%ebx)
	.loc 1 1566 0
	movl	%eax, 68(%ebx)
	.loc 1 1573 0
	movl	8(%ebx), %eax
	.loc 1 1569 0
	movl	$0, 92(%ebx)
	.loc 1 1570 0
	movl	$0, 52(%ebx)
	.loc 1 1573 0
	pushl	448(%eax)
	.cfi_def_cfa_offset 48
	call	httpd_set_ndelay
.LVL299:
	.loc 1 1575 0
	addl	$12, %esp
	.cfi_def_cfa_offset 36
	pushl	$0
	.cfi_def_cfa_offset 40
	pushl	%ebx
	.cfi_def_cfa_offset 44
	movl	8(%ebx), %eax
	pushl	448(%eax)
	.cfi_def_cfa_offset 48
	call	fdwatch_add_fd
.LVL300:
	.loc 1 1577 0
	addl	$1, stats_connections
	.loc 1 1578 0
	movl	num_connects, %eax
	addl	$16, %esp
	.cfi_def_cfa_offset 32
	cmpl	stats_simultaneous, %eax
	jle	.L306
	.loc 1 1579 0
	movl	%eax, stats_simultaneous
	jmp	.L306
.LVL301:
	.p2align 4,,10
	.p2align 3
.L305:
	movl	%eax, 12(%esp)
	.loc 1 1553 0
	subl	$12, %esp
	.cfi_def_cfa_offset 44
	pushl	%edi
	.cfi_def_cfa_offset 48
	call	tmr_run
.LVL302:
	.loc 1 1554 0
	addl	$16, %esp
	.cfi_def_cfa_offset 32
	movl	12(%esp), %eax
	.loc 1 1581 0
	addl	$16, %esp
	.cfi_remember_state
	.cfi_def_cfa_offset 16
	popl	%ebx
	.cfi_restore 3
	.cfi_def_cfa_offset 12
.LVL303:
	popl	%esi
	.cfi_restore 6
	.cfi_def_cfa_offset 8
.LVL304:
	popl	%edi
	.cfi_restore 7
	.cfi_def_cfa_offset 4
.LVL305:
	ret
.LVL306:
	.p2align 4,,10
	.p2align 3
.L317:
	.cfi_restore_state
	.loc 1 1536 0
	subl	$12, %esp
	.cfi_def_cfa_offset 44
	pushl	$456
	.cfi_def_cfa_offset 48
	call	malloc
.LVL307:
	.loc 1 1537 0
	addl	$16, %esp
	.cfi_def_cfa_offset 32
	testl	%eax, %eax
	.loc 1 1536 0
	movl	%eax, 8(%ebx)
	.loc 1 1537 0
	je	.L319
	.loc 1 1542 0
	movl	$0, (%eax)
	.loc 1 1543 0
	addl	$1, httpd_conn_count
	jmp	.L302
.LVL308:
	.p2align 4,,10
	.p2align 3
.L316:
	.loc 1 1522 0
	subl	$8, %esp
	.cfi_def_cfa_offset 40
	pushl	$.LC100
	.cfi_def_cfa_offset 44
	pushl	$4
	.cfi_def_cfa_offset 48
	call	syslog
.LVL309:
	.loc 1 1523 0
	movl	%edi, (%esp)
	call	tmr_run
.LVL310:
	.loc 1 1524 0
	addl	$16, %esp
	.cfi_def_cfa_offset 32
	xorl	%eax, %eax
	jmp	.L299
.L300:
	.loc 1 1529 0
	subl	$8, %esp
	.cfi_remember_state
	.cfi_def_cfa_offset 40
	pushl	$.LC101
	.cfi_def_cfa_offset 44
	pushl	$2
	.cfi_def_cfa_offset 48
	call	syslog
.LVL311:
	.loc 1 1530 0
	movl	$1, (%esp)
	call	exit
.LVL312:
.L319:
	.cfi_restore_state
	.loc 1 1539 0
	pushl	%eax
	.cfi_def_cfa_offset 36
	pushl	%eax
	.cfi_def_cfa_offset 40
	pushl	$.LC102
	.cfi_def_cfa_offset 44
	pushl	$2
	.cfi_def_cfa_offset 48
	call	syslog
.LVL313:
	.loc 1 1540 0
	movl	$1, (%esp)
	call	exit
.LVL314:
	.cfi_endproc
.LFE17:
	.size	handle_newconnect, .-handle_newconnect
	.section	.text.unlikely
.LCOLDE103:
	.text
.LHOTE103:
	.section	.rodata.str1.4
	.align 4
.LC104:
	.string	"throttle sending count was negative - shouldn't happen!"
	.section	.text.unlikely
.LCOLDB105:
	.text
.LHOTB105:
	.p2align 4,,15
	.type	check_throttles, @function
check_throttles:
.LFB21:
	.loc 1 1883 0
	.cfi_startproc
.LVL315:
	pushl	%ebp
	.cfi_def_cfa_offset 8
	.cfi_offset 5, -8
	pushl	%edi
	.cfi_def_cfa_offset 12
	.cfi_offset 7, -12
	.loc 1 1889 0
	xorl	%ebp, %ebp
	.loc 1 1883 0
	pushl	%esi
	.cfi_def_cfa_offset 16
	.cfi_offset 6, -16
	pushl	%ebx
	.cfi_def_cfa_offset 20
	.cfi_offset 3, -20
	movl	%eax, %ebx
	.loc 1 1889 0
	xorl	%edi, %edi
	.loc 1 1883 0
	subl	$28, %esp
	.cfi_def_cfa_offset 48
	.loc 1 1887 0
	movl	$0, 52(%eax)
	.loc 1 1888 0
	movl	$-1, 60(%eax)
	movl	$-1, 56(%eax)
.LVL316:
	.loc 1 1889 0
	movl	numthrottles, %eax
.LVL317:
	testl	%eax, %eax
	jg	.L335
	jmp	.L329
.LVL318:
	.p2align 4,,10
	.p2align 3
.L342:
	leal	1(%edx), %esi
	movl	%esi, 12(%esp)
.L325:
	.loc 1 1904 0
	movl	52(%ebx), %edx
	leal	1(%edx), %esi
	movl	%esi, 52(%ebx)
	movl	%ebp, 12(%ebx,%edx,4)
	.loc 1 1905 0
	movl	12(%esp), %edx
	movl	%edx, 20(%eax)
	.loc 1 1906 0
	movl	8(%esp), %eax
	movl	%edx, %esi
	cltd
	idivl	%esi
.LVL319:
	.loc 1 1907 0
	movl	56(%ebx), %edx
	cmpl	$-1, %edx
	je	.L340
	.loc 1 1910 0
	cmpl	%edx, %eax
	cmovg	%edx, %eax
.LVL320:
.L340:
	movl	%eax, 56(%ebx)
.LVL321:
	.loc 1 1912 0
	movl	60(%ebx), %eax
	cmpl	$-1, %eax
	je	.L341
	.loc 1 1915 0
	cmpl	%eax, %ecx
	cmovl	%eax, %ecx
.LVL322:
.L341:
	movl	%ecx, 60(%ebx)
.L323:
	.loc 1 1890 0
	addl	$1, %ebp
.LVL323:
	.loc 1 1889 0
	cmpl	%ebp, numthrottles
	jle	.L329
	addl	$24, %edi
	.loc 1 1889 0 is_stmt 0 discriminator 2
	cmpl	$9, 52(%ebx)
	jg	.L329
.LVL324:
.L335:
	.loc 1 1891 0 is_stmt 1
	movl	8(%ebx), %eax
	subl	$8, %esp
	.cfi_def_cfa_offset 56
	pushl	188(%eax)
	.cfi_def_cfa_offset 60
	movl	throttles, %eax
	pushl	(%eax,%edi)
	.cfi_def_cfa_offset 64
	call	match
.LVL325:
	addl	$16, %esp
	.cfi_def_cfa_offset 48
	testl	%eax, %eax
	je	.L323
	.loc 1 1894 0
	movl	throttles, %eax
	addl	%edi, %eax
	movl	4(%eax), %esi
	movl	12(%eax), %edx
	leal	(%esi,%esi), %ecx
	movl	%esi, 8(%esp)
	cmpl	%ecx, %edx
	jg	.L332
	.loc 1 1897 0
	movl	8(%eax), %ecx
	cmpl	%ecx, %edx
	jl	.L332
	.loc 1 1899 0
	movl	20(%eax), %edx
	testl	%edx, %edx
	jns	.L342
	.loc 1 1901 0
	subl	$8, %esp
	.cfi_def_cfa_offset 56
	pushl	$.LC104
	.cfi_def_cfa_offset 60
	pushl	$3
	.cfi_def_cfa_offset 64
	call	syslog
.LVL326:
	.loc 1 1902 0
	movl	throttles, %eax
	addl	%edi, %eax
	movl	4(%eax), %ecx
	movl	$0, 20(%eax)
	movl	%ecx, 24(%esp)
	addl	$16, %esp
	.cfi_def_cfa_offset 48
	movl	8(%eax), %ecx
	movl	$1, 12(%esp)
	jmp	.L325
.LVL327:
	.p2align 4,,10
	.p2align 3
.L329:
	.loc 1 1918 0
	addl	$28, %esp
	.cfi_remember_state
	.cfi_def_cfa_offset 20
	.loc 1 1917 0
	movl	$1, %eax
	.loc 1 1918 0
	popl	%ebx
	.cfi_restore 3
	.cfi_def_cfa_offset 16
.LVL328:
	popl	%esi
	.cfi_restore 6
	.cfi_def_cfa_offset 12
	popl	%edi
	.cfi_restore 7
	.cfi_def_cfa_offset 8
	popl	%ebp
	.cfi_restore 5
	.cfi_def_cfa_offset 4
	ret
.LVL329:
	.p2align 4,,10
	.p2align 3
.L332:
	.cfi_restore_state
	addl	$28, %esp
	.cfi_def_cfa_offset 20
	.loc 1 1895 0
	xorl	%eax, %eax
	.loc 1 1918 0
	popl	%ebx
	.cfi_restore 3
	.cfi_def_cfa_offset 16
.LVL330:
	popl	%esi
	.cfi_restore 6
	.cfi_def_cfa_offset 12
	popl	%edi
	.cfi_restore 7
	.cfi_def_cfa_offset 8
	popl	%ebp
	.cfi_restore 5
	.cfi_def_cfa_offset 4
.LVL331:
	ret
	.cfi_endproc
.LFE21:
	.size	check_throttles, .-check_throttles
	.section	.text.unlikely
.LCOLDE105:
	.text
.LHOTE105:
	.section	.text.unlikely
.LCOLDB106:
	.text
.LHOTB106:
	.p2align 4,,15
	.type	shut_down, @function
shut_down:
.LFB16:
	.loc 1 1467 0
	.cfi_startproc
	pushl	%edi
	.cfi_def_cfa_offset 8
	.cfi_offset 7, -8
	pushl	%esi
	.cfi_def_cfa_offset 12
	.cfi_offset 6, -12
	.loc 1 1473 0
	xorl	%edi, %edi
	.loc 1 1467 0
	pushl	%ebx
	.cfi_def_cfa_offset 16
	.cfi_offset 3, -16
	subl	$24, %esp
	.cfi_def_cfa_offset 40
	.loc 1 1467 0
	movl	%gs:20, %eax
	movl	%eax, 20(%esp)
	xorl	%eax, %eax
	.loc 1 1471 0
	pushl	$0
	.cfi_def_cfa_offset 44
	leal	16(%esp), %esi
	pushl	%esi
	.cfi_def_cfa_offset 48
	call	gettimeofday
	.loc 1 1472 0
	movl	%esi, %eax
	call	logstats
	.loc 1 1473 0
	movl	max_connects, %ecx
	addl	$16, %esp
	.cfi_def_cfa_offset 32
	testl	%ecx, %ecx
	jg	.L363
	jmp	.L349
	.p2align 4,,10
	.p2align 3
.L347:
	.loc 1 1477 0
	movl	8(%eax), %eax
	testl	%eax, %eax
	je	.L348
	.loc 1 1479 0
	subl	$12, %esp
	.cfi_def_cfa_offset 44
	pushl	%eax
	.cfi_def_cfa_offset 48
	call	httpd_destroy_conn
	.loc 1 1480 0
	addl	connects, %ebx
	popl	%eax
	.cfi_def_cfa_offset 44
	pushl	8(%ebx)
	.cfi_def_cfa_offset 48
	call	free
	.loc 1 1481 0
	subl	$1, httpd_conn_count
	.loc 1 1482 0
	movl	$0, 8(%ebx)
	addl	$16, %esp
	.cfi_def_cfa_offset 32
.L348:
	.loc 1 1473 0 discriminator 2
	addl	$1, %edi
	cmpl	%edi, max_connects
	jle	.L349
.L363:
	leal	(%edi,%edi,2), %ebx
	.loc 1 1475 0
	movl	connects, %eax
	sall	$5, %ebx
	addl	%ebx, %eax
	movl	(%eax), %edx
	testl	%edx, %edx
	je	.L347
	.loc 1 1476 0
	subl	$8, %esp
	.cfi_def_cfa_offset 40
	pushl	%esi
	.cfi_def_cfa_offset 44
	pushl	8(%eax)
	.cfi_def_cfa_offset 48
	call	httpd_close_conn
	movl	connects, %eax
	addl	$16, %esp
	.cfi_def_cfa_offset 32
	addl	%ebx, %eax
	jmp	.L347
	.p2align 4,,10
	.p2align 3
.L349:
	.loc 1 1485 0
	movl	hs, %ebx
	testl	%ebx, %ebx
	je	.L346
.LBB2:
	.loc 1 1489 0
	movl	40(%ebx), %eax
	.loc 1 1488 0
	movl	$0, hs
	.loc 1 1489 0
	cmpl	$-1, %eax
	je	.L350
	.loc 1 1490 0
	subl	$12, %esp
	.cfi_def_cfa_offset 44
	pushl	%eax
	.cfi_def_cfa_offset 48
	call	fdwatch_del_fd
	addl	$16, %esp
	.cfi_def_cfa_offset 32
.L350:
	.loc 1 1491 0
	movl	44(%ebx), %eax
	cmpl	$-1, %eax
	je	.L351
	.loc 1 1492 0
	subl	$12, %esp
	.cfi_def_cfa_offset 44
	pushl	%eax
	.cfi_def_cfa_offset 48
	call	fdwatch_del_fd
	addl	$16, %esp
	.cfi_def_cfa_offset 32
.L351:
	.loc 1 1493 0
	subl	$12, %esp
	.cfi_def_cfa_offset 44
	pushl	%ebx
	.cfi_def_cfa_offset 48
	call	httpd_terminate
	addl	$16, %esp
	.cfi_def_cfa_offset 32
.L346:
.LBE2:
	.loc 1 1495 0
	call	mmc_destroy
	.loc 1 1496 0
	call	tmr_destroy
	.loc 1 1497 0
	subl	$12, %esp
	.cfi_def_cfa_offset 44
	pushl	connects
	.cfi_def_cfa_offset 48
	call	free
	.loc 1 1498 0
	movl	throttles, %eax
	addl	$16, %esp
	.cfi_def_cfa_offset 32
	testl	%eax, %eax
	je	.L343
	.loc 1 1499 0
	subl	$12, %esp
	.cfi_def_cfa_offset 44
	pushl	%eax
	.cfi_def_cfa_offset 48
	call	free
	addl	$16, %esp
	.cfi_def_cfa_offset 32
.L343:
	.loc 1 1500 0
	movl	12(%esp), %eax
	xorl	%gs:20, %eax
	jne	.L370
	addl	$16, %esp
	.cfi_remember_state
	.cfi_def_cfa_offset 16
	popl	%ebx
	.cfi_restore 3
	.cfi_def_cfa_offset 12
	popl	%esi
	.cfi_restore 6
	.cfi_def_cfa_offset 8
	popl	%edi
	.cfi_restore 7
	.cfi_def_cfa_offset 4
	ret
.L370:
	.cfi_restore_state
	call	__stack_chk_fail
	.cfi_endproc
.LFE16:
	.size	shut_down, .-shut_down
	.section	.text.unlikely
.LCOLDE106:
	.text
.LHOTE106:
	.section	.rodata.str1.1
.LC107:
	.string	"exiting"
	.section	.text.unlikely
.LCOLDB108:
	.text
.LHOTB108:
	.p2align 4,,15
	.type	handle_usr1, @function
handle_usr1:
.LFB3:
	.loc 1 257 0
	.cfi_startproc
.LVL332:
	.loc 1 260 0
	movl	num_connects, %edx
	testl	%edx, %edx
	je	.L374
	.loc 1 273 0
	movl	$1, got_usr1
	ret
.L374:
	.loc 1 257 0
	subl	$12, %esp
	.cfi_def_cfa_offset 16
	.loc 1 266 0
	call	shut_down
.LVL333:
	.loc 1 267 0
	pushl	%eax
	.cfi_def_cfa_offset 20
	pushl	%eax
	.cfi_def_cfa_offset 24
	pushl	$.LC107
	.cfi_def_cfa_offset 28
	pushl	$5
	.cfi_def_cfa_offset 32
	call	syslog
.LVL334:
	.loc 1 268 0
	call	closelog
.LVL335:
	.loc 1 269 0
	movl	$0, (%esp)
	call	exit
.LVL336:
	.cfi_endproc
.LFE3:
	.size	handle_usr1, .-handle_usr1
	.section	.text.unlikely
.LCOLDE108:
	.text
.LHOTE108:
	.section	.rodata.str1.1
.LC109:
	.string	"exiting due to signal %d"
	.section	.text.unlikely
.LCOLDB110:
	.text
.LHOTB110:
	.p2align 4,,15
	.type	handle_term, @function
handle_term:
.LFB0:
	.loc 1 172 0
	.cfi_startproc
.LVL337:
	subl	$12, %esp
	.cfi_def_cfa_offset 16
	.loc 1 175 0
	call	shut_down
.LVL338:
	.loc 1 176 0
	subl	$4, %esp
	.cfi_def_cfa_offset 20
	pushl	20(%esp)
	.cfi_def_cfa_offset 24
	pushl	$.LC109
	.cfi_def_cfa_offset 28
	pushl	$5
	.cfi_def_cfa_offset 32
	call	syslog
.LVL339:
	.loc 1 177 0
	call	closelog
.LVL340:
	.loc 1 178 0
	movl	$1, (%esp)
	call	exit
.LVL341:
	.cfi_endproc
.LFE0:
	.size	handle_term, .-handle_term
	.section	.text.unlikely
.LCOLDE110:
	.text
.LHOTE110:
	.section	.text.unlikely
.LCOLDB111:
	.text
.LHOTB111:
	.p2align 4,,15
	.type	clear_throttles.isra.0, @function
clear_throttles.isra.0:
.LFB34:
	.loc 1 1922 0
	.cfi_startproc
.LVL342:
	pushl	%ebx
	.cfi_def_cfa_offset 8
	.cfi_offset 3, -8
	.loc 1 1926 0
	movl	52(%eax), %ebx
	testl	%ebx, %ebx
	jle	.L377
	movl	throttles, %ecx
	leal	12(%eax), %edx
	leal	12(%eax,%ebx,4), %ebx
.LVL343:
	.p2align 4,,10
	.p2align 3
.L379:
	.loc 1 1927 0
	movl	(%edx), %eax
	addl	$4, %edx
	leal	(%eax,%eax,2), %eax
	subl	$1, 20(%ecx,%eax,8)
	.loc 1 1926 0
	cmpl	%ebx, %edx
	jne	.L379
.L377:
	.loc 1 1928 0
	popl	%ebx
	.cfi_restore 3
	.cfi_def_cfa_offset 4
	ret
	.cfi_endproc
.LFE34:
	.size	clear_throttles.isra.0, .-clear_throttles.isra.0
	.section	.text.unlikely
.LCOLDE111:
	.text
.LHOTE111:
	.section	.text.unlikely
.LCOLDB112:
	.text
.LHOTB112:
	.p2align 4,,15
	.type	really_clear_connection, @function
really_clear_connection:
.LFB26:
	.loc 1 2048 0
	.cfi_startproc
.LVL344:
	pushl	%esi
	.cfi_def_cfa_offset 8
	.cfi_offset 6, -8
	pushl	%ebx
	.cfi_def_cfa_offset 12
	.cfi_offset 3, -12
	movl	%eax, %ebx
	movl	%edx, %esi
	subl	$4, %esp
	.cfi_def_cfa_offset 16
	.loc 1 2049 0
	movl	8(%eax), %eax
.LVL345:
	movl	168(%eax), %edx
.LVL346:
	addl	%edx, stats_bytes
	.loc 1 2050 0
	cmpl	$3, (%ebx)
	je	.L384
	.loc 1 2051 0
	subl	$12, %esp
	.cfi_def_cfa_offset 28
	pushl	448(%eax)
	.cfi_def_cfa_offset 32
	call	fdwatch_del_fd
.LVL347:
	movl	8(%ebx), %eax
	addl	$16, %esp
	.cfi_def_cfa_offset 16
.L384:
	.loc 1 2052 0
	subl	$8, %esp
	.cfi_def_cfa_offset 24
	pushl	%esi
	.cfi_def_cfa_offset 28
	pushl	%eax
	.cfi_def_cfa_offset 32
	call	httpd_close_conn
.LVL348:
	.loc 1 2053 0
	movl	%ebx, %eax
	call	clear_throttles.isra.0
.LVL349:
	.loc 1 2054 0
	movl	76(%ebx), %eax
	addl	$16, %esp
	.cfi_def_cfa_offset 16
	testl	%eax, %eax
	je	.L385
	.loc 1 2056 0
	subl	$12, %esp
	.cfi_def_cfa_offset 28
	pushl	%eax
	.cfi_def_cfa_offset 32
	call	tmr_cancel
.LVL350:
	.loc 1 2057 0
	movl	$0, 76(%ebx)
	addl	$16, %esp
	.cfi_def_cfa_offset 16
.L385:
	.loc 1 2060 0
	movl	first_free_connect, %eax
	.loc 1 2059 0
	movl	$0, (%ebx)
	.loc 1 2062 0
	subl	$1, num_connects
	.loc 1 2060 0
	movl	%eax, 4(%ebx)
	.loc 1 2061 0
	subl	connects, %ebx
.LVL351:
	sarl	$5, %ebx
	imull	$-1431655765, %ebx, %ebx
	movl	%ebx, first_free_connect
	.loc 1 2063 0
	addl	$4, %esp
	.cfi_def_cfa_offset 12
	popl	%ebx
	.cfi_restore 3
	.cfi_def_cfa_offset 8
	popl	%esi
	.cfi_restore 6
	.cfi_def_cfa_offset 4
.LVL352:
	ret
	.cfi_endproc
.LFE26:
	.size	really_clear_connection, .-really_clear_connection
	.section	.text.unlikely
.LCOLDE112:
	.text
.LHOTE112:
	.section	.rodata.str1.4
	.align 4
.LC113:
	.string	"replacing non-null linger_timer!"
	.align 4
.LC114:
	.string	"tmr_create(linger_clear_connection) failed"
	.section	.text.unlikely
.LCOLDB115:
	.text
.LHOTB115:
	.p2align 4,,15
	.type	clear_connection, @function
clear_connection:
.LFB25:
	.loc 1 1996 0
	.cfi_startproc
.LVL353:
	pushl	%esi
	.cfi_def_cfa_offset 8
	.cfi_offset 6, -8
	pushl	%ebx
	.cfi_def_cfa_offset 12
	.cfi_offset 3, -12
	movl	%eax, %ebx
	movl	%edx, %esi
	subl	$4, %esp
	.cfi_def_cfa_offset 16
	.loc 1 1999 0
	movl	72(%eax), %eax
.LVL354:
	testl	%eax, %eax
	je	.L391
	.loc 1 2001 0
	subl	$12, %esp
	.cfi_def_cfa_offset 28
	pushl	%eax
	.cfi_def_cfa_offset 32
	call	tmr_cancel
.LVL355:
	.loc 1 2002 0
	movl	$0, 72(%ebx)
	addl	$16, %esp
	.cfi_def_cfa_offset 16
.L391:
	.loc 1 2016 0
	cmpl	$4, (%ebx)
	je	.L392
	movl	8(%ebx), %eax
	.loc 1 2023 0
	movl	356(%eax), %ecx
	testl	%ecx, %ecx
	je	.L394
	.loc 1 2025 0
	cmpl	$3, (%ebx)
	je	.L395
	.loc 1 2026 0
	subl	$12, %esp
	.cfi_def_cfa_offset 28
	pushl	448(%eax)
	.cfi_def_cfa_offset 32
	call	fdwatch_del_fd
.LVL356:
	movl	8(%ebx), %eax
	addl	$16, %esp
	.cfi_def_cfa_offset 16
.L395:
	.loc 1 2028 0
	subl	$8, %esp
	.cfi_def_cfa_offset 24
	.loc 1 2027 0
	movl	$4, (%ebx)
	.loc 1 2028 0
	pushl	$1
	.cfi_def_cfa_offset 28
	pushl	448(%eax)
	.cfi_def_cfa_offset 32
	call	shutdown
.LVL357:
	.loc 1 2029 0
	movl	8(%ebx), %eax
	addl	$12, %esp
	.cfi_def_cfa_offset 20
	pushl	$0
	.cfi_def_cfa_offset 24
	pushl	%ebx
	.cfi_def_cfa_offset 28
	pushl	448(%eax)
	.cfi_def_cfa_offset 32
	call	fdwatch_add_fd
.LVL358:
	.loc 1 2031 0
	movl	76(%ebx), %edx
	addl	$16, %esp
	.cfi_def_cfa_offset 16
	testl	%edx, %edx
	je	.L396
	.loc 1 2032 0
	subl	$8, %esp
	.cfi_def_cfa_offset 24
	pushl	$.LC113
	.cfi_def_cfa_offset 28
	pushl	$3
	.cfi_def_cfa_offset 32
	call	syslog
.LVL359:
	addl	$16, %esp
	.cfi_def_cfa_offset 16
.L396:
	.loc 1 2033 0
	subl	$12, %esp
	.cfi_def_cfa_offset 28
	pushl	$0
	.cfi_def_cfa_offset 32
	pushl	$500
	.cfi_def_cfa_offset 36
	pushl	%ebx
	.cfi_def_cfa_offset 40
	pushl	$linger_clear_connection
	.cfi_def_cfa_offset 44
	pushl	%esi
	.cfi_def_cfa_offset 48
	call	tmr_create
.LVL360:
	.loc 1 2035 0
	addl	$32, %esp
	.cfi_def_cfa_offset 16
	testl	%eax, %eax
	.loc 1 2033 0
	movl	%eax, 76(%ebx)
	.loc 1 2035 0
	je	.L402
	.loc 1 2043 0
	addl	$4, %esp
	.cfi_remember_state
	.cfi_def_cfa_offset 12
	popl	%ebx
	.cfi_restore 3
	.cfi_def_cfa_offset 8
.LVL361:
	popl	%esi
	.cfi_restore 6
	.cfi_def_cfa_offset 4
.LVL362:
	ret
.LVL363:
	.p2align 4,,10
	.p2align 3
.L392:
	.cfi_restore_state
	.loc 1 2019 0
	subl	$12, %esp
	.cfi_def_cfa_offset 28
	pushl	76(%ebx)
	.cfi_def_cfa_offset 32
	call	tmr_cancel
.LVL364:
	.loc 1 2021 0
	movl	8(%ebx), %eax
	.loc 1 2020 0
	movl	$0, 76(%ebx)
	.loc 1 2021 0
	addl	$16, %esp
	.cfi_def_cfa_offset 16
	movl	$0, 356(%eax)
.L394:
	.loc 1 2043 0
	addl	$4, %esp
	.cfi_remember_state
	.cfi_def_cfa_offset 12
	.loc 1 2042 0
	movl	%esi, %edx
	movl	%ebx, %eax
	.loc 1 2043 0
	popl	%ebx
	.cfi_restore 3
	.cfi_def_cfa_offset 8
.LVL365:
	popl	%esi
	.cfi_restore 6
	.cfi_def_cfa_offset 4
.LVL366:
	.loc 1 2042 0
	jmp	really_clear_connection
.LVL367:
.L402:
	.cfi_restore_state
	.loc 1 2037 0
	pushl	%eax
	.cfi_def_cfa_offset 20
	pushl	%eax
	.cfi_def_cfa_offset 24
	pushl	$.LC114
	.cfi_def_cfa_offset 28
	pushl	$2
	.cfi_def_cfa_offset 32
	call	syslog
.LVL368:
	.loc 1 2038 0
	movl	$1, (%esp)
	call	exit
.LVL369:
	.cfi_endproc
.LFE25:
	.size	clear_connection, .-clear_connection
	.section	.text.unlikely
.LCOLDE115:
	.text
.LHOTE115:
	.section	.text.unlikely
.LCOLDB116:
	.text
.LHOTB116:
	.p2align 4,,15
	.type	finish_connection, @function
finish_connection:
.LFB24:
	.loc 1 1985 0
	.cfi_startproc
.LVL370:
	pushl	%esi
	.cfi_def_cfa_offset 8
	.cfi_offset 6, -8
	pushl	%ebx
	.cfi_def_cfa_offset 12
	.cfi_offset 3, -12
	movl	%edx, %esi
	movl	%eax, %ebx
	subl	$16, %esp
	.cfi_def_cfa_offset 28
	.loc 1 1987 0
	pushl	8(%eax)
	.cfi_def_cfa_offset 32
	call	httpd_write_response
.LVL371:
	.loc 1 1991 0
	addl	$20, %esp
	.cfi_def_cfa_offset 12
	.loc 1 1990 0
	movl	%esi, %edx
	movl	%ebx, %eax
	.loc 1 1991 0
	popl	%ebx
	.cfi_restore 3
	.cfi_def_cfa_offset 8
.LVL372:
	popl	%esi
	.cfi_restore 6
	.cfi_def_cfa_offset 4
.LVL373:
	.loc 1 1990 0
	jmp	clear_connection
.LVL374:
	.cfi_endproc
.LFE24:
	.size	finish_connection, .-finish_connection
	.section	.text.unlikely
.LCOLDE116:
	.text
.LHOTE116:
	.section	.text.unlikely
.LCOLDB117:
	.text
.LHOTB117:
	.p2align 4,,15
	.type	handle_read, @function
handle_read:
.LFB18:
	.loc 1 1586 0
	.cfi_startproc
.LVL375:
	pushl	%ebp
	.cfi_def_cfa_offset 8
	.cfi_offset 5, -8
	pushl	%edi
	.cfi_def_cfa_offset 12
	.cfi_offset 7, -12
	movl	%edx, %edi
	pushl	%esi
	.cfi_def_cfa_offset 16
	.cfi_offset 6, -16
	pushl	%ebx
	.cfi_def_cfa_offset 20
	.cfi_offset 3, -20
	movl	%eax, %esi
	subl	$12, %esp
	.cfi_def_cfa_offset 32
	.loc 1 1589 0
	movl	8(%eax), %ebx
.LVL376:
	.loc 1 1592 0
	movl	144(%ebx), %eax
.LVL377:
	movl	140(%ebx), %ecx
	cmpl	%ecx, %eax
	jb	.L406
	.loc 1 1594 0
	cmpl	$5000, %ecx
	jbe	.L434
.LVL378:
.L433:
	.loc 1 1637 0
	subl	$8, %esp
	.cfi_def_cfa_offset 40
	pushl	$.LC60
	.cfi_def_cfa_offset 44
	pushl	httpd_err400form
	.cfi_def_cfa_offset 48
	pushl	$.LC60
	.cfi_def_cfa_offset 52
	pushl	httpd_err400title
	.cfi_def_cfa_offset 56
	pushl	$400
	.cfi_def_cfa_offset 60
.L432:
	.loc 1 1652 0
	pushl	%ebx
	.cfi_def_cfa_offset 64
	call	httpd_send_err
.LVL379:
	.loc 1 1654 0
	movl	%edi, %edx
	movl	%esi, %eax
	.loc 1 1703 0
	addl	$44, %esp
	.cfi_def_cfa_offset 20
.LVL380:
.L429:
	popl	%ebx
	.cfi_restore 3
	.cfi_def_cfa_offset 16
	popl	%esi
	.cfi_restore 6
	.cfi_def_cfa_offset 12
	popl	%edi
	.cfi_restore 7
	.cfi_def_cfa_offset 8
	popl	%ebp
	.cfi_restore 5
	.cfi_def_cfa_offset 4
.LBB3:
	.loc 1 1685 0
	jmp	finish_connection
.LVL381:
	.p2align 4,,10
	.p2align 3
.L434:
	.cfi_def_cfa_offset 32
	.cfi_offset 3, -20
	.cfi_offset 5, -8
	.cfi_offset 6, -16
	.cfi_offset 7, -12
.LBE3:
	.loc 1 1600 0
	leal	140(%ebx), %eax
	subl	$4, %esp
	.cfi_def_cfa_offset 36
	addl	$1000, %ecx
	pushl	%ecx
	.cfi_def_cfa_offset 40
	pushl	%eax
	.cfi_def_cfa_offset 44
	leal	136(%ebx), %eax
	pushl	%eax
	.cfi_def_cfa_offset 48
	call	httpd_realloc_str
.LVL382:
	movl	140(%ebx), %ecx
	movl	144(%ebx), %eax
	addl	$16, %esp
	.cfi_def_cfa_offset 32
.L406:
	.loc 1 1605 0
	subl	$4, %esp
	.cfi_def_cfa_offset 36
	subl	%eax, %ecx
	pushl	%ecx
	.cfi_def_cfa_offset 40
	addl	136(%ebx), %eax
	pushl	%eax
	.cfi_def_cfa_offset 44
	pushl	448(%ebx)
	.cfi_def_cfa_offset 48
	call	read
.LVL383:
	.loc 1 1608 0
	addl	$16, %esp
	.cfi_def_cfa_offset 32
	testl	%eax, %eax
	je	.L433
	.loc 1 1614 0
	js	.L435
	.loc 1 1628 0
	addl	%eax, 144(%ebx)
	.loc 1 1629 0
	movl	(%edi), %eax
.LVL384:
	.loc 1 1632 0
	subl	$12, %esp
	.cfi_def_cfa_offset 44
	pushl	%ebx
	.cfi_def_cfa_offset 48
	.loc 1 1629 0
	movl	%eax, 68(%esi)
	.loc 1 1632 0
	call	httpd_got_request
.LVL385:
	addl	$16, %esp
	.cfi_def_cfa_offset 32
	testl	%eax, %eax
	je	.L405
	cmpl	$2, %eax
	je	.L433
	.loc 1 1643 0
	subl	$12, %esp
	.cfi_def_cfa_offset 44
	pushl	%ebx
	.cfi_def_cfa_offset 48
	call	httpd_parse_request
.LVL386:
	addl	$16, %esp
	.cfi_def_cfa_offset 32
	testl	%eax, %eax
	js	.L430
	.loc 1 1650 0
	movl	%esi, %eax
	call	check_throttles
.LVL387:
	testl	%eax, %eax
	je	.L436
	.loc 1 1659 0
	subl	$8, %esp
	.cfi_def_cfa_offset 40
	pushl	%edi
	.cfi_def_cfa_offset 44
	pushl	%ebx
	.cfi_def_cfa_offset 48
	call	httpd_start_request
.LVL388:
	addl	$16, %esp
	.cfi_def_cfa_offset 32
	testl	%eax, %eax
	js	.L430
	.loc 1 1667 0
	movl	336(%ebx), %edx
	testl	%edx, %edx
	je	.L416
	.loc 1 1669 0
	movl	344(%ebx), %eax
	movl	%eax, 92(%esi)
	.loc 1 1670 0
	movl	348(%ebx), %eax
	addl	$1, %eax
	movl	%eax, 88(%esi)
.L417:
	.loc 1 1678 0
	movl	452(%ebx), %eax
	testl	%eax, %eax
	je	.L437
	.loc 1 1688 0
	movl	88(%esi), %eax
	cmpl	%eax, 92(%esi)
	jl	.L438
.LVL389:
.L430:
.LBB4:
	.loc 1 1685 0
	movl	%edi, %edx
	movl	%esi, %eax
.LBE4:
	.loc 1 1703 0
	addl	$12, %esp
	.cfi_remember_state
	.cfi_def_cfa_offset 20
	jmp	.L429
.LVL390:
.L438:
	.cfi_restore_state
	.loc 1 1697 0
	movl	(%edi), %eax
	.loc 1 1701 0
	subl	$12, %esp
	.cfi_def_cfa_offset 44
	pushl	448(%ebx)
	.cfi_def_cfa_offset 48
	.loc 1 1696 0
	movl	$2, (%esi)
	.loc 1 1698 0
	movl	$0, 80(%esi)
.LVL391:
	.loc 1 1697 0
	movl	%eax, 64(%esi)
	.loc 1 1701 0
	call	fdwatch_del_fd
.LVL392:
	.loc 1 1702 0
	addl	$12, %esp
	.cfi_def_cfa_offset 36
	pushl	$1
	.cfi_def_cfa_offset 40
	pushl	%esi
	.cfi_def_cfa_offset 44
	pushl	448(%ebx)
	.cfi_def_cfa_offset 48
	call	fdwatch_add_fd
.LVL393:
	addl	$16, %esp
	.cfi_def_cfa_offset 32
.LVL394:
	.p2align 4,,10
	.p2align 3
.L405:
	.loc 1 1703 0
	addl	$12, %esp
	.cfi_remember_state
	.cfi_def_cfa_offset 20
	popl	%ebx
	.cfi_restore 3
	.cfi_def_cfa_offset 16
.LVL395:
	popl	%esi
	.cfi_restore 6
	.cfi_def_cfa_offset 12
.LVL396:
	popl	%edi
	.cfi_restore 7
	.cfi_def_cfa_offset 8
.LVL397:
	popl	%ebp
	.cfi_restore 5
	.cfi_def_cfa_offset 4
	ret
.LVL398:
	.p2align 4,,10
	.p2align 3
.L435:
	.cfi_restore_state
	.loc 1 1621 0
	call	__errno_location
.LVL399:
	movl	(%eax), %eax
	cmpl	$11, %eax
	je	.L405
	cmpl	$4, %eax
	jne	.L433
	jmp	.L405
	.p2align 4,,10
	.p2align 3
.L436:
	.loc 1 1652 0
	subl	$8, %esp
	.cfi_remember_state
	.cfi_def_cfa_offset 40
	pushl	172(%ebx)
	.cfi_def_cfa_offset 44
	pushl	httpd_err503form
	.cfi_def_cfa_offset 48
	pushl	$.LC60
	.cfi_def_cfa_offset 52
	pushl	httpd_err503title
	.cfi_def_cfa_offset 56
	pushl	$503
	.cfi_def_cfa_offset 60
	jmp	.L432
	.p2align 4,,10
	.p2align 3
.L416:
	.cfi_restore_state
	.loc 1 1672 0
	movl	164(%ebx), %eax
	.loc 1 1673 0
	movl	$0, %edx
	testl	%eax, %eax
	cmovs	%edx, %eax
	movl	%eax, 88(%esi)
	jmp	.L417
.L437:
.LVL400:
.LBB5:
	.loc 1 1682 0 discriminator 1
	movl	52(%esi), %edx
	testl	%edx, %edx
	jle	.L439
	movl	throttles, %ecx
	movl	168(%ebx), %ebx
.LVL401:
	leal	12(%esi), %eax
	leal	12(%esi,%edx,4), %ebp
.LVL402:
	.p2align 4,,10
	.p2align 3
.L422:
	.loc 1 1683 0 discriminator 3
	movl	(%eax), %edx
	addl	$4, %eax
	leal	(%edx,%edx,2), %edx
	addl	%ebx, 16(%ecx,%edx,8)
	.loc 1 1682 0 discriminator 3
	cmpl	%ebp, %eax
	jne	.L422
.L421:
	.loc 1 1684 0
	movl	%ebx, 92(%esi)
	jmp	.L430
.LVL403:
.L439:
	movl	168(%ebx), %ebx
.LVL404:
	jmp	.L421
.LBE5:
	.cfi_endproc
.LFE18:
	.size	handle_read, .-handle_read
	.section	.text.unlikely
.LCOLDE117:
	.text
.LHOTE117:
	.section	.rodata.str1.4
	.align 4
.LC118:
	.string	"%.80s connection timed out reading"
	.align 4
.LC119:
	.string	"%.80s connection timed out sending"
	.section	.text.unlikely
.LCOLDB120:
	.text
.LHOTB120:
	.p2align 4,,15
	.type	idle, @function
idle:
.LFB27:
	.loc 1 2068 0
	.cfi_startproc
	pushl	%ebp
	.cfi_def_cfa_offset 8
	.cfi_offset 5, -8
	pushl	%edi
	.cfi_def_cfa_offset 12
	.cfi_offset 7, -12
	.loc 1 2072 0
	xorl	%edi, %edi
	.loc 1 2068 0
	pushl	%esi
	.cfi_def_cfa_offset 16
	.cfi_offset 6, -16
	pushl	%ebx
	.cfi_def_cfa_offset 20
	.cfi_offset 3, -20
	.loc 1 2072 0
	xorl	%esi, %esi
	.loc 1 2068 0
	subl	$12, %esp
	.cfi_def_cfa_offset 32
	.loc 1 2072 0
	movl	max_connects, %ecx
	.loc 1 2068 0
	movl	36(%esp), %ebp
	.loc 1 2072 0
	testl	%ecx, %ecx
	jg	.L447
	jmp	.L440
	.p2align 4,,10
	.p2align 3
.L452:
	.loc 1 2075 0
	jl	.L442
	cmpl	$3, %eax
	jg	.L442
	.loc 1 2090 0
	movl	0(%ebp), %eax
	subl	68(%ebx), %eax
	cmpl	$299, %eax
	jg	.L451
.L442:
	.loc 1 2072 0 discriminator 2
	addl	$1, %edi
	addl	$96, %esi
	cmpl	%edi, max_connects
	jle	.L440
.L447:
	.loc 1 2074 0
	movl	connects, %ebx
	addl	%esi, %ebx
	.loc 1 2075 0
	movl	(%ebx), %eax
	cmpl	$1, %eax
	jne	.L452
	.loc 1 2078 0
	movl	0(%ebp), %eax
	subl	68(%ebx), %eax
	cmpl	$59, %eax
	jle	.L442
	.loc 1 2080 0
	movl	8(%ebx), %eax
	subl	$12, %esp
	.cfi_def_cfa_offset 44
	.loc 1 2072 0
	addl	$1, %edi
	addl	$96, %esi
	.loc 1 2080 0
	addl	$8, %eax
	pushl	%eax
	.cfi_def_cfa_offset 48
	call	httpd_ntoa
	addl	$12, %esp
	.cfi_def_cfa_offset 36
	pushl	%eax
	.cfi_def_cfa_offset 40
	pushl	$.LC118
	.cfi_def_cfa_offset 44
	pushl	$6
	.cfi_def_cfa_offset 48
	call	syslog
	.loc 1 2083 0
	popl	%eax
	.cfi_def_cfa_offset 44
	popl	%edx
	.cfi_def_cfa_offset 40
	pushl	$.LC60
	.cfi_def_cfa_offset 44
	pushl	httpd_err408form
	.cfi_def_cfa_offset 48
	pushl	$.LC60
	.cfi_def_cfa_offset 52
	pushl	httpd_err408title
	.cfi_def_cfa_offset 56
	pushl	$408
	.cfi_def_cfa_offset 60
	pushl	8(%ebx)
	.cfi_def_cfa_offset 64
	call	httpd_send_err
	.loc 1 2085 0
	addl	$32, %esp
	.cfi_def_cfa_offset 32
	movl	%ebp, %edx
	movl	%ebx, %eax
	call	finish_connection
	.loc 1 2072 0
	cmpl	%edi, max_connects
	jg	.L447
	.p2align 4,,10
	.p2align 3
.L440:
	.loc 1 2100 0
	addl	$12, %esp
	.cfi_remember_state
	.cfi_def_cfa_offset 20
	popl	%ebx
	.cfi_restore 3
	.cfi_def_cfa_offset 16
	popl	%esi
	.cfi_restore 6
	.cfi_def_cfa_offset 12
	popl	%edi
	.cfi_restore 7
	.cfi_def_cfa_offset 8
	popl	%ebp
	.cfi_restore 5
	.cfi_def_cfa_offset 4
	ret
	.p2align 4,,10
	.p2align 3
.L451:
	.cfi_restore_state
	.loc 1 2092 0
	movl	8(%ebx), %eax
	subl	$12, %esp
	.cfi_def_cfa_offset 44
	addl	$8, %eax
	pushl	%eax
	.cfi_def_cfa_offset 48
	call	httpd_ntoa
	addl	$12, %esp
	.cfi_def_cfa_offset 36
	pushl	%eax
	.cfi_def_cfa_offset 40
	pushl	$.LC119
	.cfi_def_cfa_offset 44
	pushl	$6
	.cfi_def_cfa_offset 48
	call	syslog
	.loc 1 2095 0
	movl	%ebp, %edx
	movl	%ebx, %eax
	call	clear_connection
	addl	$16, %esp
	.cfi_def_cfa_offset 32
	jmp	.L442
	.cfi_endproc
.LFE27:
	.size	idle, .-idle
	.section	.text.unlikely
.LCOLDE120:
	.text
.LHOTE120:
	.section	.rodata.str1.4
	.align 4
.LC121:
	.string	"replacing non-null wakeup_timer!"
	.align 4
.LC122:
	.string	"tmr_create(wakeup_connection) failed"
	.section	.rodata.str1.1
.LC123:
	.string	"write - %m sending %.80s"
	.section	.text.unlikely
.LCOLDB124:
	.text
.LHOTB124:
	.p2align 4,,15
	.type	handle_send, @function
handle_send:
.LFB19:
	.loc 1 1708 0
	.cfi_startproc
.LVL405:
	pushl	%ebp
	.cfi_def_cfa_offset 8
	.cfi_offset 5, -8
	pushl	%edi
	.cfi_def_cfa_offset 12
	.cfi_offset 7, -12
	pushl	%esi
	.cfi_def_cfa_offset 16
	.cfi_offset 6, -16
	pushl	%ebx
	.cfi_def_cfa_offset 20
	.cfi_offset 3, -20
	movl	%eax, %ebx
	subl	$60, %esp
	.cfi_def_cfa_offset 80
	.loc 1 1713 0
	movl	8(%ebx), %edi
.LVL406:
	.loc 1 1708 0
	movl	%edx, 4(%esp)
	.loc 1 1716 0
	movl	56(%ebx), %edx
.LVL407:
	.loc 1 1708 0
	movl	%gs:20, %eax
	movl	%eax, 44(%esp)
	xorl	%eax, %eax
.LVL408:
	.loc 1 1717 0
	movl	$1000000000, %eax
	.loc 1 1716 0
	cmpl	$-1, %edx
	je	.L454
	.loc 1 1719 0
	leal	3(%edx), %eax
	testl	%edx, %edx
	cmovns	%edx, %eax
	sarl	$2, %eax
.LVL409:
.L454:
	.loc 1 1722 0
	movl	304(%edi), %edx
	testl	%edx, %edx
	jne	.L455
	.loc 1 1727 0
	movl	92(%ebx), %ecx
	movl	88(%ebx), %edx
	.loc 1 1725 0
	subl	$4, %esp
	.cfi_def_cfa_offset 84
	.loc 1 1727 0
	subl	%ecx, %edx
	cmpl	%edx, %eax
	cmova	%edx, %eax
.LVL410:
	.loc 1 1725 0
	addl	452(%edi), %ecx
	pushl	%eax
	.cfi_def_cfa_offset 88
	pushl	%ecx
	.cfi_def_cfa_offset 92
	pushl	448(%edi)
	.cfi_def_cfa_offset 96
	call	write
.LVL411:
	addl	$16, %esp
	.cfi_def_cfa_offset 80
	.loc 1 1743 0
	testl	%eax, %eax
	js	.L512
.L457:
	.loc 1 1746 0
	je	.L460
	.loc 1 1795 0
	movl	4(%esp), %esi
	movl	(%esi), %edx
	movl	%edx, 68(%ebx)
	.loc 1 1797 0
	movl	304(%edi), %edx
	testl	%edx, %edx
	je	.L466
	.loc 1 1800 0
	cmpl	%eax, %edx
	ja	.L513
	.loc 1 1811 0
	subl	%edx, %eax
.LVL412:
	.loc 1 1812 0
	movl	$0, 304(%edi)
.LVL413:
.L466:
	.loc 1 1816 0
	movl	92(%ebx), %esi
	.loc 1 1817 0
	movl	8(%ebx), %edx
	.loc 1 1818 0
	movl	52(%ebx), %ecx
	.loc 1 1816 0
	addl	%eax, %esi
	movl	%esi, 92(%ebx)
	movl	%esi, 8(%esp)
	.loc 1 1817 0
	movl	168(%edx), %esi
	addl	%eax, %esi
	.loc 1 1818 0
	testl	%ecx, %ecx
	.loc 1 1817 0
	movl	%esi, 12(%esp)
	movl	%esi, 168(%edx)
.LVL414:
	.loc 1 1818 0
	jle	.L472
	movl	throttles, %esi
	leal	12(%ebx), %edx
	leal	12(%ebx,%ecx,4), %ebp
.LVL415:
	.p2align 4,,10
	.p2align 3
.L471:
	.loc 1 1819 0 discriminator 3
	movl	(%edx), %ecx
	addl	$4, %edx
	leal	(%ecx,%ecx,2), %ecx
	addl	%eax, 16(%esi,%ecx,8)
	.loc 1 1818 0 discriminator 3
	cmpl	%ebp, %edx
	jne	.L471
.L472:
	.loc 1 1822 0
	movl	8(%esp), %eax
.LVL416:
	cmpl	88(%ebx), %eax
	jge	.L514
	.loc 1 1830 0
	movl	80(%ebx), %eax
	cmpl	$100, %eax
	jg	.L515
.L473:
	.loc 1 1834 0
	movl	56(%ebx), %ecx
	cmpl	$-1, %ecx
	je	.L453
	.loc 1 1836 0
	movl	4(%esp), %eax
	movl	(%eax), %esi
.LVL417:
	.loc 1 1838 0
	subl	64(%ebx), %esi
.LVL418:
	movl	$1, %eax
	cmove	%eax, %esi
.LVL419:
	.loc 1 1839 0
	movl	12(%esp), %eax
	cltd
	idivl	%esi
	cmpl	%eax, %ecx
	jge	.L453
	.loc 1 1842 0
	subl	$12, %esp
	.cfi_def_cfa_offset 92
	pushl	448(%edi)
	.cfi_def_cfa_offset 96
	.loc 1 1841 0
	movl	$3, (%ebx)
	.loc 1 1842 0
	call	fdwatch_del_fd
.LVL420:
	.loc 1 1846 0
	movl	8(%ebx), %eax
	.loc 1 1848 0
	addl	$16, %esp
	.cfi_def_cfa_offset 80
	.loc 1 1846 0
	movl	168(%eax), %eax
	cltd
	idivl	56(%ebx)
	subl	%esi, %eax
	movl	%eax, %esi
.LVL421:
	.loc 1 1848 0
	movl	72(%ebx), %eax
.LVL422:
	testl	%eax, %eax
	je	.L476
	.loc 1 1849 0
	subl	$8, %esp
	.cfi_def_cfa_offset 88
	pushl	$.LC121
	.cfi_def_cfa_offset 92
	pushl	$3
	.cfi_def_cfa_offset 96
	call	syslog
.LVL423:
	addl	$16, %esp
	.cfi_def_cfa_offset 80
.L476:
	.loc 1 1850 0
	imull	$1000, %esi, %edx
	movl	$500, %eax
	testl	%esi, %esi
	cmovg	%edx, %eax
	subl	$12, %esp
	.cfi_remember_state
	.cfi_def_cfa_offset 92
	pushl	$0
	.cfi_def_cfa_offset 96
	pushl	%eax
	.cfi_def_cfa_offset 100
	jmp	.L510
.LVL424:
	.p2align 4,,10
	.p2align 3
.L455:
	.cfi_restore_state
.LBB6:
	.loc 1 1736 0
	movl	252(%edi), %ecx
	.loc 1 1737 0
	movl	%edx, 32(%esp)
	.loc 1 1739 0
	movl	88(%ebx), %esi
	.loc 1 1738 0
	movl	92(%ebx), %edx
	.loc 1 1736 0
	movl	%ecx, 28(%esp)
	.loc 1 1738 0
	movl	452(%edi), %ecx
	.loc 1 1739 0
	subl	%edx, %esi
	.loc 1 1738 0
	addl	%edx, %ecx
	.loc 1 1739 0
	cmpl	%esi, %eax
	cmova	%esi, %eax
.LVL425:
	.loc 1 1738 0
	movl	%ecx, 36(%esp)
	.loc 1 1740 0
	subl	$4, %esp
	.cfi_def_cfa_offset 84
	.loc 1 1739 0
	movl	%eax, 44(%esp)
	.loc 1 1740 0
	pushl	$2
	.cfi_def_cfa_offset 88
	leal	36(%esp), %eax
	pushl	%eax
	.cfi_def_cfa_offset 92
	pushl	448(%edi)
	.cfi_def_cfa_offset 96
	call	writev
.LVL426:
	addl	$16, %esp
	.cfi_def_cfa_offset 80
.LBE6:
	.loc 1 1743 0
	testl	%eax, %eax
	jns	.L457
.L512:
	.loc 1 1743 0 is_stmt 0 discriminator 1
	call	__errno_location
.LVL427:
	movl	(%eax), %eax
	cmpl	$4, %eax
	je	.L453
	.loc 1 1747 0 is_stmt 1
	cmpl	$11, %eax
	je	.L460
	.loc 1 1788 0
	cmpl	$22, %eax
	setne	%cl
	cmpl	$32, %eax
	setne	%dl
	testb	%dl, %cl
	je	.L464
	cmpl	$104, %eax
	je	.L464
	.loc 1 1789 0
	subl	$4, %esp
	.cfi_def_cfa_offset 84
	pushl	172(%edi)
	.cfi_def_cfa_offset 88
	pushl	$.LC123
	.cfi_def_cfa_offset 92
	pushl	$3
	.cfi_def_cfa_offset 96
	call	syslog
.LVL428:
	addl	$16, %esp
	.cfi_def_cfa_offset 80
.L464:
	.loc 1 1790 0
	movl	4(%esp), %edx
	movl	%ebx, %eax
	call	clear_connection
.LVL429:
	.loc 1 1791 0
	jmp	.L453
	.p2align 4,,10
	.p2align 3
.L460:
	.loc 1 1759 0
	addl	$100, 80(%ebx)
	.loc 1 1761 0
	subl	$12, %esp
	.cfi_def_cfa_offset 92
	pushl	448(%edi)
	.cfi_def_cfa_offset 96
	.loc 1 1760 0
	movl	$3, (%ebx)
	.loc 1 1761 0
	call	fdwatch_del_fd
.LVL430:
	.loc 1 1763 0
	movl	72(%ebx), %ecx
	addl	$16, %esp
	.cfi_def_cfa_offset 80
	testl	%ecx, %ecx
	je	.L463
	.loc 1 1764 0
	subl	$8, %esp
	.cfi_def_cfa_offset 88
	pushl	$.LC121
	.cfi_def_cfa_offset 92
	pushl	$3
	.cfi_def_cfa_offset 96
	call	syslog
.LVL431:
	addl	$16, %esp
	.cfi_def_cfa_offset 80
.L463:
	.loc 1 1765 0
	subl	$12, %esp
	.cfi_def_cfa_offset 92
	pushl	$0
	.cfi_def_cfa_offset 96
	pushl	80(%ebx)
	.cfi_def_cfa_offset 100
.L510:
	pushl	%ebx
	.cfi_def_cfa_offset 104
	pushl	$wakeup_connection
	.cfi_def_cfa_offset 108
	pushl	32(%esp)
	.cfi_def_cfa_offset 112
	call	tmr_create
.LVL432:
	.loc 1 1767 0
	addl	$32, %esp
	.cfi_def_cfa_offset 80
	testl	%eax, %eax
	.loc 1 1765 0
	movl	%eax, 72(%ebx)
	.loc 1 1767 0
	je	.L516
.L453:
	.loc 1 1861 0
	movl	44(%esp), %eax
	xorl	%gs:20, %eax
	jne	.L517
	addl	$60, %esp
	.cfi_remember_state
	.cfi_def_cfa_offset 20
	popl	%ebx
	.cfi_restore 3
	.cfi_def_cfa_offset 16
.LVL433:
	popl	%esi
	.cfi_restore 6
	.cfi_def_cfa_offset 12
	popl	%edi
	.cfi_restore 7
	.cfi_def_cfa_offset 8
.LVL434:
	popl	%ebp
	.cfi_restore 5
	.cfi_def_cfa_offset 4
	ret
.LVL435:
	.p2align 4,,10
	.p2align 3
.L515:
	.cfi_restore_state
	.loc 1 1831 0
	subl	$100, %eax
	movl	%eax, 80(%ebx)
	jmp	.L473
.LVL436:
	.p2align 4,,10
	.p2align 3
.L513:
.LBB7:
	.loc 1 1803 0
	movl	%edx, %esi
	.loc 1 1804 0
	movl	252(%edi), %edx
	subl	$4, %esp
	.cfi_def_cfa_offset 84
	.loc 1 1803 0
	subl	%eax, %esi
.LVL437:
	.loc 1 1804 0
	pushl	%esi
	.cfi_def_cfa_offset 88
	addl	%edx, %eax
.LVL438:
	pushl	%eax
	.cfi_def_cfa_offset 92
	pushl	%edx
	.cfi_def_cfa_offset 96
	call	memmove
.LVL439:
	.loc 1 1805 0
	movl	%esi, 304(%edi)
.LVL440:
.LBE7:
	addl	$16, %esp
	.cfi_def_cfa_offset 80
.LBB8:
	.loc 1 1806 0
	xorl	%eax, %eax
.LBE8:
	jmp	.L466
.LVL441:
	.p2align 4,,10
	.p2align 3
.L514:
	.loc 1 1825 0
	movl	4(%esp), %edx
	movl	%ebx, %eax
	call	finish_connection
.LVL442:
	.loc 1 1826 0
	jmp	.L453
.L517:
	.loc 1 1861 0
	call	__stack_chk_fail
.LVL443:
.L516:
	.loc 1 1769 0
	pushl	%edx
	.cfi_def_cfa_offset 84
	pushl	%edx
	.cfi_def_cfa_offset 88
	pushl	$.LC122
	.cfi_def_cfa_offset 92
	pushl	$2
	.cfi_def_cfa_offset 96
	call	syslog
.LVL444:
	.loc 1 1770 0
	movl	$1, (%esp)
	call	exit
.LVL445:
	.cfi_endproc
.LFE19:
	.size	handle_send, .-handle_send
	.section	.text.unlikely
.LCOLDE124:
	.text
.LHOTE124:
	.section	.text.unlikely
.LCOLDB125:
	.text
.LHOTB125:
	.p2align 4,,15
	.type	linger_clear_connection, @function
linger_clear_connection:
.LFB29:
	.loc 1 2119 0
	.cfi_startproc
.LVL446:
	.loc 1 2119 0
	movl	4(%esp), %eax
.LVL447:
	.loc 1 2124 0
	movl	8(%esp), %edx
	.loc 1 2123 0
	movl	$0, 76(%eax)
	.loc 1 2124 0
	jmp	really_clear_connection
.LVL448:
	.cfi_endproc
.LFE29:
	.size	linger_clear_connection, .-linger_clear_connection
	.section	.text.unlikely
.LCOLDE125:
	.text
.LHOTE125:
	.section	.text.unlikely
.LCOLDB126:
	.text
.LHOTB126:
	.p2align 4,,15
	.type	handle_linger, @function
handle_linger:
.LFB20:
	.loc 1 1866 0
	.cfi_startproc
.LVL449:
	pushl	%esi
	.cfi_def_cfa_offset 8
	.cfi_offset 6, -8
	pushl	%ebx
	.cfi_def_cfa_offset 12
	.cfi_offset 3, -12
	movl	%eax, %ebx
	movl	%edx, %esi
	subl	$4120, %esp
	.cfi_def_cfa_offset 4132
	.loc 1 1866 0
	movl	%gs:20, %eax
	movl	%eax, 4112(%esp)
	xorl	%eax, %eax
.LVL450:
	.loc 1 1873 0
	pushl	$4096
	.cfi_def_cfa_offset 4136
	leal	20(%esp), %eax
	pushl	%eax
	.cfi_def_cfa_offset 4140
	movl	8(%ebx), %eax
	pushl	448(%eax)
	.cfi_def_cfa_offset 4144
	call	read
.LVL451:
	.loc 1 1874 0
	addl	$16, %esp
	.cfi_def_cfa_offset 4128
	testl	%eax, %eax
	js	.L527
	.loc 1 1876 0
	je	.L522
.LVL452:
.L519:
	.loc 1 1878 0
	movl	4108(%esp), %eax
	xorl	%gs:20, %eax
	jne	.L528
	addl	$4116, %esp
	.cfi_remember_state
	.cfi_def_cfa_offset 12
	popl	%ebx
	.cfi_restore 3
	.cfi_def_cfa_offset 8
.LVL453:
	popl	%esi
	.cfi_restore 6
	.cfi_def_cfa_offset 4
.LVL454:
	ret
.LVL455:
	.p2align 4,,10
	.p2align 3
.L527:
	.cfi_restore_state
	.loc 1 1874 0 discriminator 1
	call	__errno_location
.LVL456:
	movl	(%eax), %eax
	cmpl	$11, %eax
	je	.L519
	cmpl	$4, %eax
	je	.L519
.L522:
	.loc 1 1877 0
	movl	%esi, %edx
	movl	%ebx, %eax
	call	really_clear_connection
.LVL457:
	jmp	.L519
.L528:
	.loc 1 1878 0
	call	__stack_chk_fail
.LVL458:
	.cfi_endproc
.LFE20:
	.size	handle_linger, .-handle_linger
	.section	.text.unlikely
.LCOLDE126:
	.text
.LHOTE126:
	.section	.rodata.str1.1
.LC127:
	.string	"%d"
.LC128:
	.string	"getaddrinfo %.80s - %.80s"
.LC129:
	.string	"%s: getaddrinfo %s - %s\n"
	.section	.rodata.str1.4
	.align 4
.LC130:
	.string	"%.80s - sockaddr too small (%lu < %lu)"
	.section	.text.unlikely
.LCOLDB131:
	.text
.LHOTB131:
	.p2align 4,,15
	.type	lookup_hostname.constprop.1, @function
lookup_hostname.constprop.1:
.LFB35:
	.loc 1 1235 0
	.cfi_startproc
.LVL459:
	pushl	%ebp
	.cfi_def_cfa_offset 8
	.cfi_offset 5, -8
	pushl	%edi
	.cfi_def_cfa_offset 12
	.cfi_offset 7, -12
	movl	%ecx, %ebp
	pushl	%esi
	.cfi_def_cfa_offset 16
	.cfi_offset 6, -16
	pushl	%ebx
	.cfi_def_cfa_offset 20
	.cfi_offset 3, -20
	movl	%eax, %esi
	subl	$92, %esp
	.cfi_def_cfa_offset 112
	.loc 1 1235 0
	movl	112(%esp), %eax
.LVL460:
	movl	%edx, 8(%esp)
	movl	%eax, 12(%esp)
	movl	%gs:20, %eax
	movl	%eax, 76(%esp)
	xorl	%eax, %eax
.LVL461:
.L530:
	.loc 1 1247 0
	movl	$0, 32(%esp,%eax)
	addl	$4, %eax
	cmpl	$32, %eax
	jb	.L530
	.loc 1 1251 0
	movzwl	port, %eax
	.loc 1 1249 0
	movl	$1, 32(%esp)
	.loc 1 1250 0
	movl	$1, 40(%esp)
	.loc 1 1251 0
	pushl	%eax
	.cfi_def_cfa_offset 116
	pushl	$.LC127
	.cfi_def_cfa_offset 120
	pushl	$10
	.cfi_def_cfa_offset 124
	leal	78(%esp), %ebx
	pushl	%ebx
	.cfi_def_cfa_offset 128
	call	snprintf
.LVL462:
	.loc 1 1252 0
	leal	44(%esp), %eax
	pushl	%eax
	.cfi_def_cfa_offset 132
	leal	52(%esp), %eax
	pushl	%eax
	.cfi_def_cfa_offset 136
	pushl	%ebx
	.cfi_def_cfa_offset 140
	pushl	hostname
	.cfi_def_cfa_offset 144
	call	getaddrinfo
.LVL463:
	addl	$32, %esp
	.cfi_def_cfa_offset 112
	testl	%eax, %eax
	movl	%eax, %ebx
.LVL464:
	jne	.L552
.LVL465:
	.loc 1 1266 0
	movl	28(%esp), %eax
.LVL466:
	testl	%eax, %eax
	je	.L533
	xorl	%ebx, %ebx
.LVL467:
	xorl	%edx, %edx
	jmp	.L537
.LVL468:
	.p2align 4,,10
	.p2align 3
.L554:
	.loc 1 1268 0
	cmpl	$10, %ecx
	jne	.L534
	.loc 1 1271 0
	testl	%edx, %edx
	cmove	%eax, %edx
.LVL469:
.L534:
	.loc 1 1266 0
	movl	28(%eax), %eax
.LVL470:
	testl	%eax, %eax
	je	.L553
.LVL471:
.L537:
	.loc 1 1268 0
	movl	4(%eax), %ecx
	cmpl	$2, %ecx
	jne	.L554
	.loc 1 1275 0
	testl	%ebx, %ebx
	cmove	%eax, %ebx
.LVL472:
	.loc 1 1266 0
	movl	28(%eax), %eax
.LVL473:
	testl	%eax, %eax
	jne	.L537
.L553:
	.loc 1 1281 0
	testl	%edx, %edx
	je	.L555
	.loc 1 1285 0
	movl	16(%edx), %ecx
	cmpl	$128, %ecx
	ja	.L556
	.loc 1 1293 0
	leal	4(%ebp), %edi
	movl	%ebp, %ecx
	movl	$0, 0(%ebp)
.LVL474:
	movl	$0, 124(%ebp)
	.loc 1 1294 0
	subl	$4, %esp
	.cfi_def_cfa_offset 116
	.loc 1 1293 0
	andl	$-4, %edi
	subl	%edi, %ecx
	subl	$-128, %ecx
	shrl	$2, %ecx
	rep; stosl
	.loc 1 1294 0
	pushl	16(%edx)
	.cfi_def_cfa_offset 120
	pushl	20(%edx)
	.cfi_def_cfa_offset 124
	pushl	%ebp
	.cfi_def_cfa_offset 128
	call	memmove
.LVL475:
	.loc 1 1295 0
	movl	28(%esp), %eax
	addl	$16, %esp
	.cfi_def_cfa_offset 112
	movl	$1, (%eax)
.LVL476:
.L539:
	.loc 1 1298 0
	testl	%ebx, %ebx
	je	.L557
	.loc 1 1302 0
	movl	16(%ebx), %eax
	cmpl	$128, %eax
	ja	.L558
	.loc 1 1310 0
	leal	4(%esi), %edi
	movl	%esi, %ecx
	xorl	%eax, %eax
	movl	$0, (%esi)
	movl	$0, 124(%esi)
	.loc 1 1311 0
	subl	$4, %esp
	.cfi_def_cfa_offset 116
	.loc 1 1310 0
	andl	$-4, %edi
	subl	%edi, %ecx
	subl	$-128, %ecx
	shrl	$2, %ecx
	rep; stosl
	.loc 1 1311 0
	pushl	16(%ebx)
	.cfi_def_cfa_offset 120
	pushl	20(%ebx)
	.cfi_def_cfa_offset 124
	pushl	%esi
	.cfi_def_cfa_offset 128
	call	memmove
.LVL477:
	.loc 1 1312 0
	movl	24(%esp), %eax
	addl	$16, %esp
	.cfi_def_cfa_offset 112
	movl	$1, (%eax)
.L542:
	.loc 1 1315 0
	subl	$12, %esp
	.cfi_def_cfa_offset 124
	pushl	40(%esp)
	.cfi_def_cfa_offset 128
	call	freeaddrinfo
.LVL478:
	addl	$16, %esp
	.cfi_def_cfa_offset 112
	.loc 1 1365 0
	movl	76(%esp), %eax
	xorl	%gs:20, %eax
	jne	.L559
	addl	$92, %esp
	.cfi_remember_state
	.cfi_def_cfa_offset 20
	popl	%ebx
	.cfi_restore 3
	.cfi_def_cfa_offset 16
	popl	%esi
	.cfi_restore 6
	.cfi_def_cfa_offset 12
.LVL479:
	popl	%edi
	.cfi_restore 7
	.cfi_def_cfa_offset 8
	popl	%ebp
	.cfi_restore 5
	.cfi_def_cfa_offset 4
.LVL480:
	ret
.LVL481:
.L555:
	.cfi_restore_state
	.loc 1 1281 0
	movl	%ebx, %eax
.LVL482:
.L533:
	.loc 1 1282 0
	movl	12(%esp), %edi
	movl	%eax, %ebx
	movl	$0, (%edi)
	jmp	.L539
.LVL483:
.L557:
	.loc 1 1299 0
	movl	8(%esp), %eax
	movl	$0, (%eax)
	jmp	.L542
.LVL484:
.L552:
	.loc 1 1254 0
	subl	$12, %esp
	.cfi_remember_state
	.cfi_def_cfa_offset 124
	pushl	%eax
	.cfi_def_cfa_offset 128
	call	gai_strerror
.LVL485:
	pushl	%eax
	.cfi_def_cfa_offset 132
	pushl	hostname
	.cfi_def_cfa_offset 136
	pushl	$.LC128
	.cfi_def_cfa_offset 140
	pushl	$2
	.cfi_def_cfa_offset 144
	call	syslog
.LVL486:
	.loc 1 1257 0
	addl	$20, %esp
	.cfi_def_cfa_offset 124
	pushl	%ebx
	.cfi_def_cfa_offset 128
	call	gai_strerror
.LVL487:
	movl	%eax, (%esp)
	pushl	hostname
	.cfi_def_cfa_offset 132
	pushl	argv0
	.cfi_def_cfa_offset 136
	pushl	$.LC129
	.cfi_def_cfa_offset 140
	pushl	stderr
	.cfi_def_cfa_offset 144
	call	fprintf
.LVL488:
	.loc 1 1260 0
	addl	$20, %esp
	.cfi_def_cfa_offset 124
	pushl	$1
	.cfi_def_cfa_offset 128
	call	exit
.LVL489:
.L559:
	.cfi_restore_state
	.loc 1 1365 0
	call	__stack_chk_fail
.LVL490:
.L558:
	.loc 1 1304 0
	subl	$12, %esp
	.cfi_def_cfa_offset 124
	pushl	%eax
	.cfi_def_cfa_offset 128
.L551:
	pushl	$128
	.cfi_def_cfa_offset 132
	pushl	hostname
	.cfi_def_cfa_offset 136
	pushl	$.LC130
	.cfi_def_cfa_offset 140
	pushl	$2
	.cfi_def_cfa_offset 144
	call	syslog
.LVL491:
	.loc 1 1308 0
	addl	$20, %esp
	.cfi_def_cfa_offset 124
	pushl	$1
	.cfi_def_cfa_offset 128
	call	exit
.LVL492:
.L556:
	.cfi_def_cfa_offset 112
	.loc 1 1287 0
	subl	$12, %esp
	.cfi_def_cfa_offset 124
	pushl	%ecx
	.cfi_def_cfa_offset 128
	jmp	.L551
	.cfi_endproc
.LFE35:
	.size	lookup_hostname.constprop.1, .-lookup_hostname.constprop.1
	.section	.text.unlikely
.LCOLDE131:
	.text
.LHOTE131:
	.section	.rodata.str1.1
.LC132:
	.string	"can't find any valid address"
	.section	.rodata.str1.4
	.align 4
.LC133:
	.string	"%s: can't find any valid address\n"
	.section	.rodata.str1.1
.LC134:
	.string	"unknown user - '%.80s'"
.LC135:
	.string	"%s: unknown user - '%s'\n"
.LC136:
	.string	"/dev/null"
	.section	.rodata.str1.4
	.align 4
.LC137:
	.string	"logfile is not an absolute path, you may not be able to re-open it"
	.align 4
.LC138:
	.string	"%s: logfile is not an absolute path, you may not be able to re-open it\n"
	.section	.rodata.str1.1
.LC139:
	.string	"fchown logfile - %m"
.LC140:
	.string	"fchown logfile"
.LC141:
	.string	"chdir - %m"
.LC142:
	.string	"chdir"
.LC143:
	.string	"daemon - %m"
.LC144:
	.string	"w"
.LC145:
	.string	"%d\n"
	.section	.rodata.str1.4
	.align 4
.LC146:
	.string	"fdwatch initialization failure"
	.section	.rodata.str1.1
.LC147:
	.string	"chroot - %m"
	.section	.rodata.str1.4
	.align 4
.LC148:
	.string	"logfile is not within the chroot tree, you will not be able to re-open it"
	.align 4
.LC149:
	.string	"%s: logfile is not within the chroot tree, you will not be able to re-open it\n"
	.section	.rodata.str1.1
.LC150:
	.string	"chroot chdir - %m"
.LC151:
	.string	"chroot chdir"
.LC152:
	.string	"data_dir chdir - %m"
.LC153:
	.string	"data_dir chdir"
.LC154:
	.string	"tmr_create(occasional) failed"
.LC155:
	.string	"tmr_create(idle) failed"
	.section	.rodata.str1.4
	.align 4
.LC156:
	.string	"tmr_create(update_throttles) failed"
	.section	.rodata.str1.1
.LC157:
	.string	"tmr_create(show_stats) failed"
.LC158:
	.string	"setgroups - %m"
.LC159:
	.string	"setgid - %m"
.LC160:
	.string	"initgroups - %m"
.LC161:
	.string	"setuid - %m"
	.section	.rodata.str1.4
	.align 4
.LC162:
	.string	"started as root without requesting chroot(), warning only"
	.align 4
.LC163:
	.string	"out of memory allocating a connecttab"
	.section	.rodata.str1.1
.LC164:
	.string	"fdwatch - %m"
	.section	.text.unlikely
.LCOLDB165:
	.section	.text.startup,"ax",@progbits
.LHOTB165:
	.p2align 4,,15
	.globl	main
	.type	main, @function
main:
.LFB7:
	.loc 1 353 0
	.cfi_startproc
.LVL493:
	leal	4(%esp), %ecx
	.cfi_def_cfa 1, 0
	andl	$-16, %esp
	pushl	-4(%ecx)
	pushl	%ebp
	.cfi_escape 0x10,0x5,0x2,0x75,0
	movl	%esp, %ebp
	pushl	%edi
	pushl	%esi
	pushl	%ebx
	pushl	%ecx
	.cfi_escape 0xf,0x3,0x75,0x70,0x6
	.cfi_escape 0x10,0x7,0x2,0x75,0x7c
	.cfi_escape 0x10,0x6,0x2,0x75,0x78
	.cfi_escape 0x10,0x3,0x2,0x75,0x74
	subl	$4416, %esp
	.loc 1 353 0
	movl	4(%ecx), %esi
	movl	(%ecx), %edi
	movl	%gs:20, %eax
	movl	%eax, -28(%ebp)
	xorl	%eax, %eax
.LVL494:
	.loc 1 370 0
	movl	(%esi), %ebx
	.loc 1 372 0
	pushl	$47
	pushl	%ebx
	.loc 1 370 0
	movl	%ebx, argv0
	.loc 1 372 0
	call	strrchr
.LVL495:
	.loc 1 374 0
	leal	1(%eax), %edx
	.loc 1 372 0
	addl	$12, %esp
.LVL496:
	.loc 1 374 0
	testl	%eax, %eax
	.loc 1 377 0
	pushl	$24
	pushl	$9
	.loc 1 374 0
	cmovne	%edx, %ebx
.LVL497:
	.loc 1 377 0
	pushl	%ebx
	call	openlog
.LVL498:
	.loc 1 380 0
	movl	%edi, %eax
	movl	%esi, %edx
	call	parse_args
.LVL499:
	.loc 1 383 0
	call	tzset
.LVL500:
	.loc 1 386 0
	leal	-4396(%ebp), %eax
	leal	-4256(%ebp), %ecx
	leal	-4400(%ebp), %edx
	movl	%eax, (%esp)
	leal	-4384(%ebp), %eax
	call	lookup_hostname.constprop.1
.LVL501:
	.loc 1 387 0
	movl	-4400(%ebp), %edi
	addl	$16, %esp
	testl	%edi, %edi
	jne	.L562
	.loc 1 387 0 is_stmt 0 discriminator 1
	cmpl	$0, -4396(%ebp)
	je	.L693
.L562:
	.loc 1 398 0 is_stmt 1
	movl	throttlefile, %eax
	.loc 1 395 0
	movl	$0, numthrottles
	.loc 1 396 0
	movl	$0, maxthrottles
	.loc 1 397 0
	movl	$0, throttles
	.loc 1 398 0
	testl	%eax, %eax
	je	.L563
	.loc 1 399 0
	call	read_throttlefile
.LVL502:
.L563:
	.loc 1 404 0
	call	getuid
.LVL503:
	testl	%eax, %eax
	.loc 1 357 0
	movl	$32767, -4412(%ebp)
	.loc 1 356 0
	movl	$32767, -4416(%ebp)
	.loc 1 404 0
	je	.L694
.LVL504:
.L564:
	.loc 1 418 0
	movl	logfile, %ebx
.LVL505:
	testl	%ebx, %ebx
	je	.L633
	.loc 1 420 0
	movl	$.LC136, %edi
	movl	$10, %ecx
	movl	%ebx, %esi
	repz; cmpsb
	je	.L695
	.loc 1 425 0
	pushl	%ecx
.LVL506:
	pushl	%ecx
	pushl	$.LC95
	pushl	%ebx
	call	strcmp
.LVL507:
	addl	$16, %esp
	testl	%eax, %eax
	jne	.L568
	.loc 1 426 0
	movl	stdout, %esi
.LVL508:
.L566:
	.loc 1 460 0
	movl	dir, %eax
	testl	%eax, %eax
	je	.L572
	.loc 1 462 0
	subl	$12, %esp
	pushl	%eax
	call	chdir
.LVL509:
	addl	$16, %esp
	testl	%eax, %eax
	js	.L696
.L572:
	.loc 1 486 0
	leal	-4125(%ebp), %ebx
	subl	$8, %esp
	pushl	$4096
	pushl	%ebx
	call	getcwd
.LVL510:
	.loc 1 487 0
	movl	%ebx, (%esp)
	call	strlen
.LVL511:
	addl	$16, %esp
	cmpb	$47, -4126(%ebp,%eax)
	je	.L573
	.loc 1 488 0
	movw	$47, (%ebx,%eax)
.L573:
	.loc 1 490 0
	movl	debug, %ecx
	testl	%ecx, %ecx
	jne	.L574
	.loc 1 495 0
	subl	$12, %esp
	pushl	stdin
	call	fclose
.LVL512:
	.loc 1 496 0
	movl	stdout, %eax
	addl	$16, %esp
	cmpl	%eax, %esi
	je	.L575
	.loc 1 497 0
	subl	$12, %esp
	pushl	%eax
	call	fclose
.LVL513:
	addl	$16, %esp
.L575:
	.loc 1 498 0
	subl	$12, %esp
	pushl	stderr
	call	fclose
.LVL514:
	.loc 1 502 0
	popl	%eax
	popl	%edx
	pushl	$1
	pushl	$1
	call	daemon
.LVL515:
	addl	$16, %esp
	testl	%eax, %eax
	js	.L697
.L576:
	.loc 1 533 0
	movl	pidfile, %eax
	testl	%eax, %eax
	je	.L577
.LBB9:
	.loc 1 536 0
	pushl	%edi
	pushl	%edi
	pushl	$.LC144
	pushl	%eax
	call	fopen
.LVL516:
	.loc 1 537 0
	addl	$16, %esp
	testl	%eax, %eax
	.loc 1 536 0
	movl	%eax, %edi
.LVL517:
	.loc 1 537 0
	je	.L698
	.loc 1 542 0
	call	getpid
.LVL518:
	pushl	%edx
	pushl	%eax
	pushl	$.LC145
	pushl	%edi
	call	fprintf
.LVL519:
	.loc 1 543 0
	movl	%edi, (%esp)
	call	fclose
.LVL520:
	addl	$16, %esp
.LVL521:
.L577:
.LBE9:
	.loc 1 549 0
	call	fdwatch_get_nfiles
.LVL522:
	.loc 1 550 0
	testl	%eax, %eax
	.loc 1 549 0
	movl	%eax, max_connects
	.loc 1 550 0
	js	.L699
	.loc 1 555 0
	subl	$10, %eax
	.loc 1 558 0
	cmpl	$0, do_chroot
	.loc 1 555 0
	movl	%eax, max_connects
	.loc 1 558 0
	jne	.L700
.L580:
	.loc 1 598 0
	movl	data_dir, %eax
	testl	%eax, %eax
	je	.L584
	.loc 1 600 0
	subl	$12, %esp
	pushl	%eax
	call	chdir
.LVL523:
	addl	$16, %esp
	testl	%eax, %eax
	js	.L701
.L584:
	.loc 1 610 0
	pushl	%eax
	pushl	%eax
	pushl	$handle_term
	pushl	$15
	call	sigset
.LVL524:
	.loc 1 611 0
	popl	%eax
	popl	%edx
	pushl	$handle_term
	pushl	$2
	call	sigset
.LVL525:
	.loc 1 612 0
	popl	%ecx
	popl	%edi
	pushl	$handle_chld
	pushl	$17
	call	sigset
.LVL526:
	.loc 1 613 0
	popl	%eax
	popl	%edx
	pushl	$1
	pushl	$13
	call	sigset
.LVL527:
	.loc 1 614 0
	popl	%ecx
	popl	%edi
	pushl	$handle_hup
	pushl	$1
	call	sigset
.LVL528:
	.loc 1 615 0
	popl	%eax
	popl	%edx
	pushl	$handle_usr1
	pushl	$10
	call	sigset
.LVL529:
	.loc 1 616 0
	popl	%ecx
	popl	%edi
	pushl	$handle_usr2
	pushl	$12
	call	sigset
.LVL530:
	.loc 1 617 0
	popl	%eax
	popl	%edx
	pushl	$handle_alrm
	pushl	$14
	call	sigset
.LVL531:
	.loc 1 631 0
	movl	$360, (%esp)
	.loc 1 628 0
	movl	$0, got_hup
	.loc 1 629 0
	movl	$0, got_usr1
	.loc 1 630 0
	movl	$0, watchdog_flag
	.loc 1 631 0
	call	alarm
.LVL532:
	.loc 1 634 0
	call	tmr_init
.LVL533:
	.loc 1 639 0
	popl	%edi
	popl	%eax
	xorl	%eax, %eax
	cmpl	$0, -4396(%ebp)
	leal	-4256(%ebp), %edx
	movzwl	port, %ecx
	leal	-4384(%ebp), %edi
	pushl	no_empty_referers
	pushl	local_pattern
	pushl	url_pattern
	pushl	do_global_passwd
	pushl	do_vhost
	cmove	%eax, %edx
	cmpl	$0, -4400(%ebp)
	pushl	no_symlink_check
	pushl	%esi
	pushl	no_log
	pushl	%ebx
	pushl	max_age
	pushl	p3p
	pushl	charset
	cmovne	%edi, %eax
	pushl	cgi_limit
	pushl	cgi_pattern
	pushl	%ecx
	pushl	%edx
	pushl	%eax
	pushl	hostname
	call	httpd_initialize
.LVL534:
	.loc 1 645 0
	addl	$80, %esp
	testl	%eax, %eax
	.loc 1 639 0
	movl	%eax, hs
	.loc 1 645 0
	je	.L702
	.loc 1 649 0
	subl	$12, %esp
	pushl	$1
	pushl	$120000
	pushl	JunkClientData
	pushl	$occasional
	pushl	$0
	call	tmr_create
.LVL535:
	addl	$32, %esp
	testl	%eax, %eax
	je	.L703
	.loc 1 655 0
	subl	$12, %esp
	pushl	$1
	pushl	$5000
	pushl	JunkClientData
	pushl	$idle
	pushl	$0
	call	tmr_create
.LVL536:
	addl	$32, %esp
	testl	%eax, %eax
	je	.L704
	.loc 1 660 0
	cmpl	$0, numthrottles
	jle	.L590
	.loc 1 663 0
	subl	$12, %esp
	pushl	$1
	pushl	$2000
	pushl	JunkClientData
	pushl	$update_throttles
	pushl	$0
	call	tmr_create
.LVL537:
	addl	$32, %esp
	testl	%eax, %eax
	je	.L705
.L590:
	.loc 1 671 0
	subl	$12, %esp
	pushl	$1
	pushl	$3600000
	pushl	JunkClientData
	pushl	$show_stats
	pushl	$0
	call	tmr_create
.LVL538:
	addl	$32, %esp
	testl	%eax, %eax
	je	.L706
	.loc 1 677 0
	subl	$12, %esp
	pushl	$0
	call	time
.LVL539:
	.loc 1 678 0
	movl	$0, stats_connections
	.loc 1 677 0
	movl	%eax, stats_time
	movl	%eax, start_time
	.loc 1 679 0
	movl	$0, stats_bytes
	.loc 1 680 0
	movl	$0, stats_simultaneous
	.loc 1 683 0
	call	getuid
.LVL540:
	addl	$16, %esp
	testl	%eax, %eax
	jne	.L593
	.loc 1 686 0
	pushl	%edx
	pushl	%edx
	pushl	$0
	pushl	$0
	call	setgroups
.LVL541:
	addl	$16, %esp
	testl	%eax, %eax
	js	.L707
	.loc 1 692 0
	subl	$12, %esp
	pushl	-4412(%ebp)
	call	setgid
.LVL542:
	addl	$16, %esp
	testl	%eax, %eax
	js	.L708
	.loc 1 698 0
	pushl	%eax
	pushl	%eax
	pushl	-4412(%ebp)
	pushl	user
	call	initgroups
.LVL543:
	addl	$16, %esp
	testl	%eax, %eax
	js	.L709
.L596:
	.loc 1 705 0
	subl	$12, %esp
	pushl	-4416(%ebp)
	call	setuid
.LVL544:
	addl	$16, %esp
	testl	%eax, %eax
	js	.L710
	.loc 1 711 0
	cmpl	$0, do_chroot
	je	.L711
.L593:
	.loc 1 718 0
	movl	max_connects, %ebx
	subl	$12, %esp
	imull	$96, %ebx, %esi
.LVL545:
	pushl	%esi
	call	malloc
.LVL546:
	.loc 1 719 0
	addl	$16, %esp
	testl	%eax, %eax
	.loc 1 718 0
	movl	%eax, connects
	.loc 1 719 0
	je	.L599
.LVL547:
	.loc 1 724 0 discriminator 1
	xorl	%ecx, %ecx
	testl	%ebx, %ebx
	movl	%eax, %edx
	jle	.L604
.LVL548:
	.p2align 4,,10
	.p2align 3
.L672:
	.loc 1 727 0 discriminator 3
	addl	$1, %ecx
.LVL549:
	.loc 1 726 0 discriminator 3
	movl	$0, (%edx)
	.loc 1 728 0 discriminator 3
	movl	$0, 8(%edx)
.LVL550:
	.loc 1 727 0 discriminator 3
	movl	%ecx, 4(%edx)
	addl	$96, %edx
	.loc 1 724 0 discriminator 3
	cmpl	%ebx, %ecx
	jne	.L672
.LVL551:
.L604:
	.loc 1 730 0
	movl	$-1, -92(%eax,%esi)
	.loc 1 735 0
	movl	hs, %eax
	.loc 1 731 0
	movl	$0, first_free_connect
	.loc 1 732 0
	movl	$0, num_connects
	.loc 1 733 0
	movl	$0, httpd_conn_count
	.loc 1 735 0
	testl	%eax, %eax
	je	.L605
	.loc 1 737 0
	movl	40(%eax), %edx
	cmpl	$-1, %edx
	je	.L606
	.loc 1 738 0
	pushl	%esi
	pushl	$0
	pushl	$0
	pushl	%edx
	call	fdwatch_add_fd
.LVL552:
	movl	hs, %eax
	addl	$16, %esp
.L606:
	.loc 1 739 0
	movl	44(%eax), %eax
	cmpl	$-1, %eax
	je	.L605
	.loc 1 740 0
	pushl	%ebx
	pushl	$0
	pushl	$0
	pushl	%eax
	call	fdwatch_add_fd
.LVL553:
	addl	$16, %esp
.L605:
	.loc 1 744 0
	leal	-4392(%ebp), %esi
	subl	$12, %esp
	pushl	%esi
	call	tmr_prepare_timeval
.LVL554:
	.loc 1 745 0
	addl	$16, %esp
	.p2align 4,,10
	.p2align 3
.L607:
	movl	terminate, %edx
	testl	%edx, %edx
	je	.L630
	.loc 1 745 0 is_stmt 0 discriminator 1
	cmpl	$0, num_connects
	jle	.L712
.L630:
	.loc 1 748 0 is_stmt 1
	movl	got_hup, %eax
	testl	%eax, %eax
	jne	.L713
.L608:
	.loc 1 755 0
	subl	$12, %esp
	pushl	%esi
	call	tmr_mstimeout
.LVL555:
	movl	%eax, (%esp)
	call	fdwatch
.LVL556:
	.loc 1 756 0
	addl	$16, %esp
	testl	%eax, %eax
	.loc 1 755 0
	movl	%eax, %ebx
.LVL557:
	.loc 1 756 0
	js	.L714
	.loc 1 763 0
	subl	$12, %esp
	pushl	%esi
	call	tmr_prepare_timeval
.LVL558:
	.loc 1 765 0
	addl	$16, %esp
	testl	%ebx, %ebx
	je	.L715
	.loc 1 773 0
	movl	hs, %eax
	testl	%eax, %eax
	je	.L621
	.loc 1 773 0 is_stmt 0 discriminator 1
	movl	44(%eax), %edx
	cmpl	$-1, %edx
	je	.L616
	.loc 1 774 0 is_stmt 1 discriminator 2
	subl	$12, %esp
	pushl	%edx
	call	fdwatch_check_fd
.LVL559:
	.loc 1 773 0 discriminator 2
	addl	$16, %esp
	testl	%eax, %eax
	jne	.L617
.L620:
	.loc 1 783 0
	movl	hs, %eax
	testl	%eax, %eax
	je	.L621
.L616:
	.loc 1 783 0 is_stmt 0 discriminator 1
	movl	40(%eax), %eax
	cmpl	$-1, %eax
	je	.L621
	.loc 1 784 0 is_stmt 1 discriminator 2
	subl	$12, %esp
	pushl	%eax
	call	fdwatch_check_fd
.LVL560:
	.loc 1 783 0 discriminator 2
	addl	$16, %esp
	testl	%eax, %eax
	jne	.L716
.LVL561:
	.p2align 4,,10
	.p2align 3
.L621:
	.loc 1 795 0
	call	fdwatch_get_next_client_data
.LVL562:
	cmpl	$-1, %eax
	movl	%eax, %ebx
.LVL563:
	je	.L717
	.loc 1 797 0
	testl	%ebx, %ebx
	je	.L621
.LVL564:
	.loc 1 800 0
	movl	8(%ebx), %eax
.LVL565:
	subl	$12, %esp
	pushl	448(%eax)
	call	fdwatch_check_fd
.LVL566:
	addl	$16, %esp
	testl	%eax, %eax
	je	.L718
	.loc 1 804 0
	movl	(%ebx), %eax
	cmpl	$2, %eax
	je	.L624
	cmpl	$4, %eax
	je	.L625
	cmpl	$1, %eax
	jne	.L621
	.loc 1 806 0
	movl	%esi, %edx
	movl	%ebx, %eax
	call	handle_read
.LVL567:
	jmp	.L621
.LVL568:
.L695:
	.loc 1 422 0
	movl	$1, no_log
.LVL569:
	.loc 1 423 0
	xorl	%esi, %esi
	jmp	.L566
.LVL570:
.L574:
	.loc 1 529 0
	call	setsid
.LVL571:
	jmp	.L576
.LVL572:
.L694:
	.loc 1 406 0
	subl	$12, %esp
	pushl	user
	call	getpwnam
.LVL573:
	.loc 1 407 0
	addl	$16, %esp
	testl	%eax, %eax
	je	.L719
	.loc 1 413 0
	movl	8(%eax), %edi
	.loc 1 414 0
	movl	12(%eax), %eax
.LVL574:
	.loc 1 413 0
	movl	%edi, -4416(%ebp)
.LVL575:
	.loc 1 414 0
	movl	%eax, -4412(%ebp)
.LVL576:
	jmp	.L564
.LVL577:
.L693:
	.loc 1 389 0
	pushl	%esi
	pushl	%esi
	pushl	$.LC132
	pushl	$3
	call	syslog
.LVL578:
	.loc 1 390 0
	addl	$12, %esp
	pushl	argv0
	pushl	$.LC133
	pushl	stderr
	call	fprintf
.LVL579:
	.loc 1 391 0
	movl	$1, (%esp)
	call	exit
.LVL580:
.L718:
	.loc 1 802 0
	movl	%esi, %edx
	movl	%ebx, %eax
	call	clear_connection
.LVL581:
	jmp	.L621
.LVL582:
.L714:
	.loc 1 758 0
	call	__errno_location
.LVL583:
	movl	(%eax), %eax
	cmpl	$11, %eax
	je	.L607
	cmpl	$4, %eax
	je	.L607
	.loc 1 760 0
	pushl	%ecx
	pushl	%ecx
	pushl	$.LC164
	pushl	$3
	call	syslog
.LVL584:
	.loc 1 761 0
	movl	$1, (%esp)
	call	exit
.LVL585:
.L625:
	.loc 1 808 0
	movl	%esi, %edx
	movl	%ebx, %eax
	call	handle_linger
.LVL586:
	jmp	.L621
.L624:
	.loc 1 807 0
	movl	%esi, %edx
	movl	%ebx, %eax
	call	handle_send
.LVL587:
	jmp	.L621
.LVL588:
.L717:
	.loc 1 811 0
	subl	$12, %esp
	pushl	%esi
	call	tmr_run
.LVL589:
	.loc 1 813 0
	movl	got_usr1, %eax
	addl	$16, %esp
	testl	%eax, %eax
	je	.L607
	.loc 1 813 0 is_stmt 0 discriminator 1
	cmpl	$0, terminate
	jne	.L607
	.loc 1 816 0 is_stmt 1
	movl	hs, %eax
	.loc 1 815 0
	movl	$1, terminate
	.loc 1 816 0
	testl	%eax, %eax
	je	.L607
	.loc 1 818 0
	movl	40(%eax), %edx
	cmpl	$-1, %edx
	je	.L628
	.loc 1 819 0
	subl	$12, %esp
	pushl	%edx
	call	fdwatch_del_fd
.LVL590:
	movl	hs, %eax
	addl	$16, %esp
.L628:
	.loc 1 820 0
	movl	44(%eax), %eax
	cmpl	$-1, %eax
	je	.L629
	.loc 1 821 0
	subl	$12, %esp
	pushl	%eax
	call	fdwatch_del_fd
.LVL591:
	addl	$16, %esp
.L629:
	.loc 1 822 0
	subl	$12, %esp
	pushl	hs
	call	httpd_unlisten
.LVL592:
	addl	$16, %esp
	jmp	.L607
.LVL593:
.L713:
	.loc 1 750 0
	call	re_open_logfile
.LVL594:
	.loc 1 751 0
	movl	$0, got_hup
	jmp	.L608
.LVL595:
.L715:
	.loc 1 768 0
	subl	$12, %esp
	pushl	%esi
	call	tmr_run
.LVL596:
	.loc 1 769 0
	addl	$16, %esp
	jmp	.L607
.LVL597:
.L700:
	.loc 1 560 0
	subl	$12, %esp
	pushl	%ebx
	call	chroot
.LVL598:
	addl	$16, %esp
	testl	%eax, %eax
	js	.L720
	.loc 1 571 0
	movl	logfile, %edx
	testl	%edx, %edx
	je	.L582
	.loc 1 571 0 is_stmt 0 discriminator 1
	pushl	%edi
	pushl	%edi
	pushl	$.LC95
	pushl	%edx
	movl	%edx, -4420(%ebp)
	call	strcmp
.LVL599:
	addl	$16, %esp
	testl	%eax, %eax
	movl	-4420(%ebp), %edx
	je	.L582
	.loc 1 573 0 is_stmt 1
	xorl	%eax, %eax
	orl	$-1, %ecx
	movl	%ebx, %edi
	repnz; scasb
	movl	%ecx, %edi
	pushl	%ecx
	notl	%edi
	leal	-1(%edi), %eax
	pushl	%eax
	pushl	%ebx
	pushl	%edx
	call	strncmp
.LVL600:
	addl	$16, %esp
	testl	%eax, %eax
	movl	-4420(%ebp), %edx
	jne	.L583
	.loc 1 575 0
	pushl	%eax
	pushl	%eax
	leal	-2(%edx,%edi), %eax
	pushl	%eax
	pushl	%edx
	call	strcpy
.LVL601:
	addl	$16, %esp
.L582:
	.loc 1 589 0
	subl	$12, %esp
	.loc 1 587 0
	movw	$47, -4125(%ebp)
	.loc 1 589 0
	pushl	%ebx
	call	chdir
.LVL602:
	addl	$16, %esp
	testl	%eax, %eax
	jns	.L580
	.loc 1 591 0
	pushl	%eax
	pushl	%eax
	pushl	$.LC150
	pushl	$2
	call	syslog
.LVL603:
	.loc 1 592 0
	movl	$.LC151, (%esp)
	call	perror
.LVL604:
	.loc 1 593 0
	movl	$1, (%esp)
	call	exit
.LVL605:
.L633:
	.loc 1 457 0
	xorl	%esi, %esi
	jmp	.L566
.LVL606:
.L568:
	.loc 1 429 0
	pushl	%eax
	pushl	%eax
	pushl	$.LC97
	pushl	%ebx
	call	fopen
.LVL607:
	movl	%eax, %esi
.LVL608:
	.loc 1 430 0
	popl	%eax
.LVL609:
	popl	%edx
	pushl	$384
	pushl	logfile
	call	chmod
.LVL610:
	.loc 1 431 0
	addl	$16, %esp
	testl	%eax, %eax
	jne	.L636
	testl	%esi, %esi
	je	.L636
	.loc 1 437 0
	movl	logfile, %eax
.LVL611:
	cmpb	$47, (%eax)
	je	.L571
	.loc 1 439 0
	pushl	%eax
	pushl	%eax
	pushl	$.LC137
	pushl	$4
	call	syslog
.LVL612:
	.loc 1 440 0
	addl	$12, %esp
	pushl	argv0
	pushl	$.LC138
	pushl	stderr
	call	fprintf
.LVL613:
	addl	$16, %esp
.L571:
	.loc 1 442 0
	subl	$12, %esp
	pushl	%esi
	call	fileno
.LVL614:
	addl	$12, %esp
	pushl	$1
	pushl	$2
	pushl	%eax
	call	fcntl
.LVL615:
	.loc 1 443 0
	call	getuid
.LVL616:
	addl	$16, %esp
	testl	%eax, %eax
	jne	.L566
	.loc 1 448 0
	subl	$12, %esp
	pushl	%esi
	call	fileno
.LVL617:
	addl	$12, %esp
	pushl	-4412(%ebp)
	pushl	-4416(%ebp)
	pushl	%eax
	call	fchown
.LVL618:
	addl	$16, %esp
	testl	%eax, %eax
	jns	.L566
	.loc 1 450 0
	pushl	%edi
	pushl	%edi
	pushl	$.LC139
	pushl	$4
	call	syslog
.LVL619:
	.loc 1 451 0
	movl	$.LC140, (%esp)
	call	perror
.LVL620:
	addl	$16, %esp
	jmp	.L566
.L696:
	.loc 1 464 0
	pushl	%ebx
	pushl	%ebx
	pushl	$.LC141
	pushl	$2
	call	syslog
.LVL621:
	.loc 1 465 0
	movl	$.LC142, (%esp)
	call	perror
.LVL622:
	.loc 1 466 0
	movl	$1, (%esp)
	call	exit
.LVL623:
.L698:
.LBB10:
	.loc 1 539 0
	pushl	%ecx
	pushl	pidfile
	pushl	$.LC86
	pushl	$2
	call	syslog
.LVL624:
	.loc 1 540 0
	movl	$1, (%esp)
	call	exit
.LVL625:
.L699:
.LBE10:
	.loc 1 552 0
	pushl	%eax
	pushl	%eax
	pushl	$.LC146
	pushl	$2
	call	syslog
.LVL626:
	.loc 1 553 0
	movl	$1, (%esp)
	call	exit
.LVL627:
.L702:
	.loc 1 646 0
	subl	$12, %esp
	pushl	$1
	call	exit
.LVL628:
.L703:
	.loc 1 651 0
	pushl	%edi
	pushl	%edi
	pushl	$.LC154
	pushl	$2
	call	syslog
.LVL629:
	.loc 1 652 0
	movl	$1, (%esp)
	call	exit
.LVL630:
.L701:
	.loc 1 602 0
	pushl	%eax
	pushl	%eax
	pushl	$.LC152
	pushl	$2
	call	syslog
.LVL631:
	.loc 1 603 0
	movl	$.LC153, (%esp)
	call	perror
.LVL632:
	.loc 1 604 0
	movl	$1, (%esp)
	call	exit
.LVL633:
.L583:
	.loc 1 583 0
	pushl	%eax
	pushl	%eax
	pushl	$.LC148
	pushl	$4
	call	syslog
.LVL634:
	.loc 1 584 0
	addl	$12, %esp
	pushl	argv0
	pushl	$.LC149
	pushl	stderr
	call	fprintf
.LVL635:
	addl	$16, %esp
	jmp	.L582
.L711:
	.loc 1 712 0
	pushl	%eax
	pushl	%eax
	pushl	$.LC162
	pushl	$4
	call	syslog
.LVL636:
	addl	$16, %esp
	jmp	.L593
.L705:
	.loc 1 665 0
	pushl	%ebx
	pushl	%ebx
	pushl	$.LC156
	pushl	$2
	call	syslog
.LVL637:
	.loc 1 666 0
	movl	$1, (%esp)
	call	exit
.LVL638:
.L697:
	.loc 1 504 0
	pushl	%eax
	pushl	%eax
	pushl	$.LC143
	pushl	$2
	call	syslog
.LVL639:
	.loc 1 505 0
	movl	$1, (%esp)
	call	exit
.LVL640:
.L617:
	.loc 1 776 0
	movl	hs, %eax
	movl	44(%eax), %edx
	movl	%esi, %eax
	call	handle_newconnect
.LVL641:
	testl	%eax, %eax
	jne	.L607
	jmp	.L620
.L716:
	.loc 1 786 0
	movl	hs, %eax
	movl	40(%eax), %edx
	movl	%esi, %eax
	call	handle_newconnect
.LVL642:
	testl	%eax, %eax
	jne	.L607
	jmp	.L621
.LVL643:
.L706:
	.loc 1 673 0
	pushl	%ecx
	pushl	%ecx
	pushl	$.LC157
	pushl	$2
	call	syslog
.LVL644:
	.loc 1 674 0
	movl	$1, (%esp)
	call	exit
.LVL645:
.L707:
	.loc 1 688 0
	pushl	%eax
	pushl	%eax
	pushl	$.LC158
	pushl	$2
	call	syslog
.LVL646:
	.loc 1 689 0
	movl	$1, (%esp)
	call	exit
.LVL647:
.L636:
.LVL648:
	.loc 1 433 0
	pushl	%eax
	pushl	logfile
	pushl	$.LC86
	pushl	$2
	call	syslog
.LVL649:
	.loc 1 434 0
	popl	%eax
	pushl	logfile
	call	perror
.LVL650:
	.loc 1 435 0
	movl	$1, (%esp)
	call	exit
.LVL651:
.L708:
	.loc 1 694 0
	pushl	%eax
	pushl	%eax
	pushl	$.LC159
	pushl	$2
	call	syslog
.LVL652:
	.loc 1 695 0
	movl	$1, (%esp)
	call	exit
.LVL653:
.L712:
	.loc 1 828 0
	call	shut_down
.LVL654:
	.loc 1 829 0
	pushl	%eax
	pushl	%eax
	pushl	$.LC107
	pushl	$5
	call	syslog
.LVL655:
	.loc 1 830 0
	call	closelog
.LVL656:
	.loc 1 831 0
	movl	$0, (%esp)
	call	exit
.LVL657:
.L704:
.LVL658:
	.loc 1 657 0
	pushl	%esi
	pushl	%esi
	pushl	$.LC155
	pushl	$2
	call	syslog
.LVL659:
	.loc 1 658 0
	movl	$1, (%esp)
	call	exit
.LVL660:
.L720:
	.loc 1 562 0
	pushl	%eax
	pushl	%eax
	pushl	$.LC147
	pushl	$2
	call	syslog
.LVL661:
	.loc 1 563 0
	movl	$.LC32, (%esp)
	call	perror
.LVL662:
	.loc 1 564 0
	movl	$1, (%esp)
	call	exit
.LVL663:
.L719:
.LVL664:
	.loc 1 409 0
	pushl	%ebx
	pushl	user
	pushl	$.LC134
	pushl	$2
	call	syslog
.LVL665:
	.loc 1 410 0
	pushl	user
	pushl	argv0
	pushl	$.LC135
	pushl	stderr
	call	fprintf
.LVL666:
	.loc 1 411 0
	addl	$20, %esp
	pushl	$1
	call	exit
.LVL667:
.L599:
	.loc 1 721 0
	pushl	%edi
	pushl	%edi
	pushl	$.LC163
	pushl	$2
	call	syslog
.LVL668:
	.loc 1 722 0
	movl	$1, (%esp)
	call	exit
.LVL669:
.L709:
	.loc 1 699 0
	pushl	%eax
	pushl	%eax
	pushl	$.LC160
	pushl	$4
	call	syslog
.LVL670:
	addl	$16, %esp
	jmp	.L596
.L710:
	.loc 1 707 0
	pushl	%eax
	pushl	%eax
	pushl	$.LC161
	pushl	$2
	call	syslog
.LVL671:
	.loc 1 708 0
	movl	$1, (%esp)
	call	exit
.LVL672:
	.cfi_endproc
.LFE7:
	.size	main, .-main
	.section	.text.unlikely
.LCOLDE165:
	.section	.text.startup
.LHOTE165:
	.local	watchdog_flag
	.comm	watchdog_flag,4,4
	.local	got_usr1
	.comm	got_usr1,4,4
	.local	got_hup
	.comm	got_hup,4,4
	.comm	stats_simultaneous,4,4
	.comm	stats_bytes,4,4
	.comm	stats_connections,4,4
	.comm	stats_time,4,4
	.comm	start_time,4,4
	.globl	terminate
	.bss
	.align 4
	.type	terminate, @object
	.size	terminate, 4
terminate:
	.zero	4
	.local	hs
	.comm	hs,4,4
	.local	httpd_conn_count
	.comm	httpd_conn_count,4,4
	.local	first_free_connect
	.comm	first_free_connect,4,4
	.local	max_connects
	.comm	max_connects,4,4
	.local	num_connects
	.comm	num_connects,4,4
	.local	connects
	.comm	connects,4,4
	.local	maxthrottles
	.comm	maxthrottles,4,4
	.local	numthrottles
	.comm	numthrottles,4,4
	.local	throttles
	.comm	throttles,4,4
	.local	max_age
	.comm	max_age,4,4
	.local	p3p
	.comm	p3p,4,4
	.local	charset
	.comm	charset,4,4
	.local	user
	.comm	user,4,4
	.local	pidfile
	.comm	pidfile,4,4
	.local	hostname
	.comm	hostname,4,4
	.local	throttlefile
	.comm	throttlefile,4,4
	.local	logfile
	.comm	logfile,4,4
	.local	local_pattern
	.comm	local_pattern,4,4
	.local	no_empty_referers
	.comm	no_empty_referers,4,4
	.local	url_pattern
	.comm	url_pattern,4,4
	.local	cgi_limit
	.comm	cgi_limit,4,4
	.local	cgi_pattern
	.comm	cgi_pattern,4,4
	.local	do_global_passwd
	.comm	do_global_passwd,4,4
	.local	do_vhost
	.comm	do_vhost,4,4
	.local	no_symlink_check
	.comm	no_symlink_check,4,4
	.local	no_log
	.comm	no_log,4,4
	.local	do_chroot
	.comm	do_chroot,4,4
	.local	data_dir
	.comm	data_dir,4,4
	.local	dir
	.comm	dir,4,4
	.local	port
	.comm	port,2,2
	.local	debug
	.comm	debug,4,4
	.local	argv0
	.comm	argv0,4,4
	.text
.Letext0:
	.section	.text.unlikely
.Letext_cold0:
	.file 2 "/usr/include/bits/types.h"
	.file 3 "/usr/include/sys/types.h"
	.file 4 "/usr/include/time.h"
	.file 5 "/usr/local/cs/gcc-4.9.2/lib/gcc/x86_64-unknown-linux-gnu/4.9.2/include/stddef.h"
	.file 6 "/usr/include/bits/time.h"
	.file 7 "/usr/include/bits/stat.h"
	.file 8 "/usr/include/signal.h"
	.file 9 "/usr/include/bits/uio.h"
	.file 10 "/usr/include/pwd.h"
	.file 11 "/usr/include/stdio.h"
	.file 12 "/usr/include/libio.h"
	.file 13 "/usr/include/unistd.h"
	.file 14 "/usr/include/sys/time.h"
	.file 15 "/usr/include/bits/sockaddr.h"
	.file 16 "/usr/include/bits/socket.h"
	.file 17 "/usr/include/stdint.h"
	.file 18 "/usr/include/netinet/in.h"
	.file 19 "/usr/include/netdb.h"
	.file 20 "./src/libhttpd.h"
	.file 21 "./src/timers.h"
	.file 22 "/usr/include/sys/syslog.h"
	.file 23 "/usr/include/stdlib.h"
	.file 24 "./src/fdwatch.h"
	.file 25 "./src/mmc.h"
	.file 26 "/usr/include/sys/wait.h"
	.file 27 "/usr/include/string.h"
	.file 28 "<built-in>"
	.file 29 "./src/match.h"
	.file 30 "/usr/include/sys/socket.h"
	.file 31 "/usr/include/sys/uio.h"
	.file 32 "/usr/include/bits/errno.h"
	.file 33 "/usr/include/grp.h"
	.file 34 "/usr/include/sys/stat.h"
	.file 35 "/usr/include/fcntl.h"
	.section	.note.GNU-stack,"",@progbits
