	.file	"thttpd.c"
	.text
.Ltext0:
	.section	.text.unlikely,"ax",@progbits
.LCOLDB0:
	.text
.LHOTB0:
	.p2align 4,,15
	.section	.text.unlikely
.Ltext_cold0:
	.text
	.type	handle_hup, @function
handle_hup:
.LASANPC2:
.LFB2:
	.file 1 "src/thttpd.c"
	.loc 1 238 0
	.cfi_startproc
.LVL0:
	.loc 1 247 0
	movl	$1, got_hup
	ret
	.cfi_endproc
.LFE2:
	.size	handle_hup, .-handle_hup
	.section	.text.unlikely
.LCOLDE0:
	.text
.LHOTE0:
	.section	.rodata
	.align 32
.LC1:
	.string	"  thttpd - %ld connections (%g/sec), %d max simultaneous, %lld bytes (%g/sec), %d httpd_conns allocated"
	.zero	56
	.section	.text.unlikely
.LCOLDB3:
	.text
.LHOTB3:
	.p2align 4,,15
	.type	thttpd_logstats, @function
thttpd_logstats:
.LASANPC33:
.LFB33:
	.loc 1 2179 0
	.cfi_startproc
.LVL1:
	subl	$28, %esp
	.cfi_def_cfa_offset 32
	.loc 1 2180 0
	testl	%eax, %eax
	jle	.L3
	movl	%eax, 12(%esp)
	.loc 1 2181 0
	subl	$4, %esp
	.cfi_def_cfa_offset 36
	movl	stats_bytes, %eax
.LVL2:
	.loc 1 2185 0
	fildl	16(%esp)
	.loc 1 2181 0
	pushl	httpd_conn_count
	.cfi_def_cfa_offset 40
	.loc 1 2185 0
	fildl	stats_bytes
	.loc 1 2181 0
	subl	$8, %esp
	.cfi_def_cfa_offset 48
	cltd
	.loc 1 2185 0
	fdiv	%st(1), %st
	.loc 1 2181 0
	fstpl	(%esp)
	pushl	%edx
	.cfi_def_cfa_offset 52
	pushl	%eax
	.cfi_def_cfa_offset 56
	pushl	stats_simultaneous
	.cfi_def_cfa_offset 60
	.loc 1 2183 0
	fildl	stats_connections
	.loc 1 2181 0
	subl	$8, %esp
	.cfi_def_cfa_offset 68
	.loc 1 2183 0
	fdivp	%st, %st(1)
	.loc 1 2181 0
	fstpl	(%esp)
	pushl	stats_connections
	.cfi_def_cfa_offset 72
	pushl	$.LC1
	.cfi_def_cfa_offset 76
	pushl	$6
	.cfi_def_cfa_offset 80
	call	syslog
.LVL3:
	addl	$48, %esp
	.cfi_def_cfa_offset 32
.LVL4:
.L3:
	.loc 1 2186 0
	movl	$0, stats_connections
	.loc 1 2187 0
	movl	$0, stats_bytes
	.loc 1 2188 0
	movl	$0, stats_simultaneous
	.loc 1 2189 0
	addl	$28, %esp
	.cfi_def_cfa_offset 4
	ret
	.cfi_endproc
.LFE33:
	.size	thttpd_logstats, .-thttpd_logstats
	.section	.text.unlikely
.LCOLDE3:
	.text
.LHOTE3:
	.section	.rodata
	.align 32
.LC4:
	.string	"throttle #%d '%.80s' rate %ld greatly exceeding limit %ld; %d sending"
	.zero	58
	.align 32
.LC5:
	.string	"throttle #%d '%.80s' rate %ld exceeding limit %ld; %d sending"
	.zero	34
	.align 32
.LC6:
	.string	"throttle #%d '%.80s' rate %ld lower than minimum %ld; %d sending"
	.zero	63
	.section	.text.unlikely
.LCOLDB7:
	.text
.LHOTB7:
	.p2align 4,,15
	.type	update_throttles, @function
update_throttles:
.LASANPC23:
.LFB23:
	.loc 1 1933 0
	.cfi_startproc
.LVL5:
	pushl	%ebp
	.cfi_def_cfa_offset 8
	.cfi_offset 5, -8
	pushl	%edi
	.cfi_def_cfa_offset 12
	.cfi_offset 7, -12
	.loc 1 1942 0
	xorl	%ebp, %ebp
	.loc 1 1933 0
	pushl	%esi
	.cfi_def_cfa_offset 16
	.cfi_offset 6, -16
	pushl	%ebx
	.cfi_def_cfa_offset 20
	.cfi_offset 3, -20
	subl	$44, %esp
	.cfi_def_cfa_offset 64
	.loc 1 1942 0
	movl	numthrottles, %eax
	testl	%eax, %eax
	jg	.L128
	jmp	.L26
.LVL6:
	.p2align 4,,10
	.p2align 3
.L22:
	.loc 1 1942 0 is_stmt 0 discriminator 2
	addl	$1, %ebp
.LVL7:
	cmpl	%ebp, numthrottles
	jle	.L26
.LVL8:
.L128:
	leal	0(%ebp,%ebp,2), %eax
	.loc 1 1944 0 is_stmt 1
	movl	throttles, %ecx
	leal	0(,%eax,8), %edi
	addl	%edi, %ecx
	leal	12(%ecx), %eax
	movl	%eax, %edx
	shrl	$3, %edx
	movzbl	536870912(%edx), %edx
	testb	%dl, %dl
	je	.L10
	movl	%eax, %ebx
	andl	$7, %ebx
	addl	$3, %ebx
	cmpb	%dl, %bl
	jge	.L177
.L10:
	movl	12(%ecx), %eax
	leal	16(%ecx), %edx
	addl	%eax, %eax
	movl	%eax, (%esp)
	movl	%edx, %eax
	shrl	$3, %eax
	movzbl	536870912(%eax), %eax
	testb	%al, %al
	je	.L11
	movl	%edx, %esi
	andl	$7, %esi
	addl	$3, %esi
	movl	%esi, %ebx
	cmpb	%al, %bl
	jge	.L178
.L11:
	movl	16(%ecx), %eax
	movl	(%esp), %ebx
	.loc 1 1945 0
	movl	$0, 16(%ecx)
	.loc 1 1944 0
	movl	%eax, %edx
	shrl	$31, %edx
	addl	%edx, %eax
	sarl	%eax
	addl	%eax, %ebx
	movl	$1431655766, %eax
	imull	%ebx
	.loc 1 1947 0
	leal	4(%ecx), %eax
	.loc 1 1944 0
	sarl	$31, %ebx
	subl	%ebx, %edx
	.loc 1 1947 0
	movl	%eax, %ebx
	shrl	$3, %ebx
	.loc 1 1944 0
	movl	%edx, (%esp)
	movl	%edx, 12(%ecx)
	.loc 1 1947 0
	movzbl	536870912(%ebx), %ebx
	testb	%bl, %bl
	je	.L12
	movl	%eax, %esi
	andl	$7, %esi
	addl	$3, %esi
	movl	%esi, %edx
	cmpb	%bl, %dl
	jge	.L179
.L12:
	movl	4(%ecx), %eax
	cmpl	%eax, (%esp)
	jle	.L13
	.loc 1 1947 0 is_stmt 0 discriminator 1
	leal	20(%ecx), %ebx
	movl	%ebx, %esi
	movl	%ebx, 4(%esp)
	shrl	$3, %esi
	movzbl	536870912(%esi), %esi
	movl	%esi, %edx
	testb	%dl, %dl
	je	.L14
	andl	$7, %ebx
	leal	3(%ebx), %edx
	movl	%esi, %ebx
	cmpb	%bl, %dl
	jge	.L180
.L14:
	movl	20(%ecx), %esi
	testl	%esi, %esi
	movl	%esi, 4(%esp)
	je	.L13
	.loc 1 1949 0 is_stmt 1
	leal	(%eax,%eax), %esi
	cmpl	%esi, (%esp)
	.loc 1 1950 0
	movl	%ecx, %esi
	.loc 1 1949 0
	jle	.L15
	.loc 1 1950 0
	shrl	$3, %esi
	movzbl	536870912(%esi), %edx
	testb	%dl, %dl
	je	.L16
	movl	%ecx, %esi
	andl	$7, %esi
	addl	$3, %esi
	movl	%esi, %ebx
	cmpb	%dl, %bl
	jge	.L181
.L16:
	subl	$4, %esp
	.cfi_def_cfa_offset 68
	pushl	8(%esp)
	.cfi_def_cfa_offset 72
	pushl	%eax
	.cfi_def_cfa_offset 76
	pushl	12(%esp)
	.cfi_def_cfa_offset 80
	pushl	(%ecx)
	.cfi_def_cfa_offset 84
	pushl	%ebp
	.cfi_def_cfa_offset 88
	pushl	$.LC4
	.cfi_def_cfa_offset 92
	pushl	$5
	.cfi_def_cfa_offset 96
	call	syslog
.LVL9:
	addl	throttles, %edi
	addl	$32, %esp
	.cfi_def_cfa_offset 64
	leal	12(%edi), %eax
	movl	%edi, %ecx
	movl	%eax, %edx
	shrl	$3, %edx
	movzbl	536870912(%edx), %edx
	testb	%dl, %dl
	je	.L19
	movl	%eax, %ebx
	andl	$7, %ebx
	addl	$3, %ebx
	cmpb	%dl, %bl
	jge	.L182
.L19:
	movl	12(%ecx), %eax
	movl	%eax, (%esp)
.L13:
	.loc 1 1954 0
	leal	8(%ecx), %eax
	movl	%eax, %ebx
	shrl	$3, %ebx
	movzbl	536870912(%ebx), %ebx
	testb	%bl, %bl
	je	.L20
	movl	%eax, %esi
	andl	$7, %esi
	addl	$3, %esi
	movl	%esi, %edx
	cmpb	%bl, %dl
	jge	.L183
.L20:
	movl	8(%ecx), %eax
	cmpl	(%esp), %eax
	jle	.L22
	.loc 1 1954 0 is_stmt 0 discriminator 1
	leal	20(%ecx), %edi
	movl	%edi, %esi
	movl	%edi, 4(%esp)
	shrl	$3, %esi
	movzbl	536870912(%esi), %esi
	movl	%esi, %edx
	testb	%dl, %dl
	je	.L23
	andl	$7, %edi
	movl	%esi, %ebx
	addl	$3, %edi
	movl	%edi, %edx
	cmpb	%bl, %dl
	jge	.L184
.L23:
	movl	20(%ecx), %edi
	testl	%edi, %edi
	movl	%edi, 4(%esp)
	je	.L22
	.loc 1 1956 0 is_stmt 1
	movl	%ecx, %esi
	shrl	$3, %esi
	movzbl	536870912(%esi), %esi
	movl	%esi, %edx
	testb	%dl, %dl
	je	.L25
	movl	%ecx, %edi
	movl	%esi, %ebx
	andl	$7, %edi
	addl	$3, %edi
	movl	%edi, %edx
	cmpb	%bl, %dl
	jge	.L185
.L25:
	subl	$4, %esp
	.cfi_def_cfa_offset 68
	pushl	8(%esp)
	.cfi_def_cfa_offset 72
	pushl	%eax
	.cfi_def_cfa_offset 76
	pushl	12(%esp)
	.cfi_def_cfa_offset 80
	pushl	(%ecx)
	.cfi_def_cfa_offset 84
	pushl	%ebp
	.cfi_def_cfa_offset 88
	pushl	$.LC6
	.cfi_def_cfa_offset 92
	.loc 1 1942 0
	addl	$1, %ebp
.LVL10:
	.loc 1 1956 0
	pushl	$5
	.cfi_def_cfa_offset 96
	call	syslog
.LVL11:
	addl	$32, %esp
	.cfi_def_cfa_offset 64
	.loc 1 1942 0
	cmpl	%ebp, numthrottles
	jg	.L128
.LVL12:
	.p2align 4,,10
	.p2align 3
.L26:
	.loc 1 1963 0
	movl	max_connects, %eax
	movl	connects, %edi
	movl	$0, 12(%esp)
	addl	$56, %edi
	testl	%eax, %eax
	movl	%eax, 28(%esp)
	movl	%edi, %ebp
	jg	.L127
	jmp	.L6
.LVL13:
	.p2align 4,,10
	.p2align 3
.L32:
	addl	$1, 12(%esp)
.LVL14:
	addl	$96, %ebp
.LVL15:
	movl	12(%esp), %eax
.LVL16:
	cmpl	28(%esp), %eax
	je	.L6
.LVL17:
.L127:
	leal	-56(%ebp), %eax
.LVL18:
	.loc 1 1966 0
	movl	%eax, %edx
	shrl	$3, %edx
	movzbl	536870912(%edx), %edx
	testb	%dl, %dl
	je	.L27
	movl	%eax, %ecx
	andl	$7, %ecx
	addl	$3, %ecx
	cmpb	%dl, %cl
	jge	.L186
.L27:
	movl	-56(%ebp), %eax
.LVL19:
	subl	$2, %eax
	cmpl	$1, %eax
	ja	.L32
	.loc 1 1968 0
	movl	%ebp, %eax
	shrl	$3, %eax
	movzbl	536870912(%eax), %eax
	testb	%al, %al
	je	.L30
	movl	%ebp, %edx
	andl	$7, %edx
	addl	$3, %edx
	cmpb	%al, %dl
	jge	.L187
.L30:
	leal	-4(%ebp), %eax
	movl	$-1, 0(%ebp)
.LVL20:
	.loc 1 1969 0
	movl	%eax, %edx
	shrl	$3, %edx
	movzbl	536870912(%edx), %edx
	testb	%dl, %dl
	je	.L31
	movl	%eax, %ecx
	andl	$7, %ecx
	addl	$3, %ecx
	cmpb	%dl, %cl
	jge	.L188
.L31:
	movl	-4(%ebp), %eax
	testl	%eax, %eax
	movl	%eax, 16(%esp)
	jle	.L32
	movl	throttles, %eax
	leal	-44(%ebp), %ebx
	movl	$-1, %ecx
	movl	$0, (%esp)
	movl	%eax, 20(%esp)
	.loc 1 1976 0
	movl	%ebp, %eax
	shrl	$3, %eax
	movl	%eax, 8(%esp)
	movl	%ebp, %eax
	andl	$7, %eax
	addl	$3, %eax
	movb	%al, 27(%esp)
	jmp	.L41
.LVL21:
	.p2align 4,,10
	.p2align 3
.L36:
	movl	8(%esp), %esi
	cmpl	%eax, %ecx
	cmovle	%ecx, %eax
.LVL22:
	movzbl	536870912(%esi), %edx
	testb	%dl, %dl
	je	.L39
	cmpb	%dl, 27(%esp)
	jge	.L189
.L39:
	.loc 1 1969 0
	addl	$1, (%esp)
.LVL23:
	.loc 1 1976 0
	movl	%eax, 0(%ebp)
.LVL24:
	addl	$4, %ebx
	.loc 1 1969 0
	movl	(%esp), %eax
.LVL25:
	cmpl	16(%esp), %eax
	je	.L32
	movl	8(%esp), %eax
.LVL26:
	movzbl	536870912(%eax), %eax
	testb	%al, %al
	je	.L40
	cmpb	%al, 27(%esp)
	jge	.L190
.L40:
	movl	0(%ebp), %ecx
.LVL27:
.L41:
	.loc 1 1971 0
	movl	%ebx, %eax
	shrl	$3, %eax
	movzbl	536870912(%eax), %eax
	testb	%al, %al
	je	.L33
	movl	%ebx, %edx
	andl	$7, %edx
	addl	$3, %edx
	cmpb	%al, %dl
	jge	.L191
.L33:
.LVL28:
	.loc 1 1972 0
	movl	(%ebx), %eax
	movl	20(%esp), %edi
	leal	(%eax,%eax,2), %eax
	leal	(%edi,%eax,8), %edi
	leal	4(%edi), %esi
	movl	%esi, %eax
	shrl	$3, %eax
	movzbl	536870912(%eax), %eax
	testb	%al, %al
	je	.L34
	movl	%esi, %edx
	andl	$7, %edx
	addl	$3, %edx
	cmpb	%al, %dl
	jge	.L192
.L34:
	leal	20(%edi), %esi
	movl	4(%edi), %eax
	movl	%esi, %edx
	shrl	$3, %edx
	movl	%eax, 4(%esp)
	movzbl	536870912(%edx), %edx
	testb	%dl, %dl
	je	.L35
	movl	%esi, %eax
	andl	$7, %eax
	addl	$3, %eax
	cmpb	%dl, %al
	jge	.L193
.L35:
	movl	4(%esp), %eax
	cltd
	idivl	20(%edi)
.LVL29:
	.loc 1 1973 0
	cmpl	$-1, %ecx
	jne	.L36
	.loc 1 1974 0
	movl	8(%esp), %esi
	movzbl	536870912(%esi), %edx
	testb	%dl, %dl
	je	.L39
	cmpb	%dl, 27(%esp)
	jl	.L39
	subl	$12, %esp
	.cfi_remember_state
	.cfi_def_cfa_offset 76
.LVL30:
	pushl	%ebp
	.cfi_def_cfa_offset 80
.LVL31:
	call	__asan_report_store4
.LVL32:
	.p2align 4,,10
	.p2align 3
.L15:
	.cfi_restore_state
	.loc 1 1952 0
	shrl	$3, %esi
	movzbl	536870912(%esi), %edx
	testb	%dl, %dl
	je	.L18
	movl	%ecx, %esi
	andl	$7, %esi
	addl	$3, %esi
	movl	%esi, %ebx
	cmpb	%dl, %bl
	jge	.L194
.L18:
	subl	$4, %esp
	.cfi_remember_state
	.cfi_def_cfa_offset 68
	pushl	8(%esp)
	.cfi_def_cfa_offset 72
	pushl	%eax
	.cfi_def_cfa_offset 76
	pushl	12(%esp)
	.cfi_def_cfa_offset 80
	pushl	(%ecx)
	.cfi_def_cfa_offset 84
	pushl	%ebp
	.cfi_def_cfa_offset 88
	pushl	$.LC5
	.cfi_def_cfa_offset 92
	pushl	$6
	.cfi_def_cfa_offset 96
	call	syslog
.LVL33:
	addl	throttles, %edi
	addl	$32, %esp
	.cfi_def_cfa_offset 64
	leal	12(%edi), %eax
	movl	%edi, %ecx
	movl	%eax, %edx
	shrl	$3, %edx
	movzbl	536870912(%edx), %edx
	testb	%dl, %dl
	je	.L19
	movl	%eax, %ebx
	andl	$7, %ebx
	addl	$3, %ebx
	cmpb	%dl, %bl
	jl	.L19
	subl	$12, %esp
	.cfi_def_cfa_offset 76
	pushl	%eax
	.cfi_def_cfa_offset 80
	call	__asan_report_load4
.LVL34:
	.p2align 4,,10
	.p2align 3
.L6:
	.cfi_restore_state
	.loc 1 1980 0
	addl	$44, %esp
	.cfi_remember_state
	.cfi_def_cfa_offset 20
	popl	%ebx
	.cfi_restore 3
	.cfi_def_cfa_offset 16
	popl	%esi
	.cfi_restore 6
	.cfi_def_cfa_offset 12
	popl	%edi
	.cfi_restore 7
	.cfi_def_cfa_offset 8
	popl	%ebp
	.cfi_restore 5
	.cfi_def_cfa_offset 4
	ret
.LVL35:
.L190:
	.cfi_restore_state
	subl	$12, %esp
	.cfi_remember_state
	.cfi_def_cfa_offset 76
.LVL36:
	pushl	%ebp
	.cfi_def_cfa_offset 80
.LVL37:
	call	__asan_report_load4
.LVL38:
.L189:
	.cfi_restore_state
	.loc 1 1976 0
	subl	$12, %esp
	.cfi_remember_state
	.cfi_def_cfa_offset 76
.LVL39:
	pushl	%ebp
	.cfi_def_cfa_offset 80
.LVL40:
	call	__asan_report_store4
.LVL41:
.L193:
	.cfi_restore_state
	.loc 1 1972 0
	subl	$12, %esp
	.cfi_remember_state
	.cfi_def_cfa_offset 76
.LVL42:
	pushl	%esi
	.cfi_def_cfa_offset 80
.LVL43:
	call	__asan_report_load4
.LVL44:
.L192:
	.cfi_restore_state
	subl	$12, %esp
	.cfi_remember_state
	.cfi_def_cfa_offset 76
.LVL45:
	pushl	%esi
	.cfi_def_cfa_offset 80
.LVL46:
	call	__asan_report_load4
.LVL47:
.L191:
	.cfi_restore_state
	.loc 1 1971 0
	subl	$12, %esp
	.cfi_remember_state
	.cfi_def_cfa_offset 76
.LVL48:
	pushl	%ebx
	.cfi_def_cfa_offset 80
	call	__asan_report_load4
.LVL49:
.L188:
	.cfi_restore_state
	.loc 1 1969 0
	subl	$12, %esp
	.cfi_remember_state
	.cfi_def_cfa_offset 76
	pushl	%eax
	.cfi_def_cfa_offset 80
	call	__asan_report_load4
.LVL50:
.L187:
	.cfi_restore_state
	.loc 1 1968 0
	subl	$12, %esp
	.cfi_remember_state
	.cfi_def_cfa_offset 76
	pushl	%ebp
	.cfi_def_cfa_offset 80
	call	__asan_report_store4
.LVL51:
.L186:
	.cfi_restore_state
	.loc 1 1966 0
	subl	$12, %esp
	.cfi_remember_state
	.cfi_def_cfa_offset 76
	pushl	%eax
	.cfi_def_cfa_offset 80
	call	__asan_report_load4
.LVL52:
.L194:
	.cfi_restore_state
	.loc 1 1952 0
	subl	$12, %esp
	.cfi_remember_state
	.cfi_def_cfa_offset 76
	pushl	%ecx
	.cfi_def_cfa_offset 80
	call	__asan_report_load4
.LVL53:
.L185:
	.cfi_restore_state
	.loc 1 1956 0
	subl	$12, %esp
	.cfi_remember_state
	.cfi_def_cfa_offset 76
	pushl	%ecx
	.cfi_def_cfa_offset 80
	call	__asan_report_load4
.LVL54:
.L184:
	.cfi_restore_state
	movl	4(%esp), %ebx
	.loc 1 1954 0
	subl	$12, %esp
	.cfi_remember_state
	.cfi_def_cfa_offset 76
	pushl	%ebx
	.cfi_def_cfa_offset 80
	call	__asan_report_load4
.LVL55:
.L183:
	.cfi_restore_state
	subl	$12, %esp
	.cfi_remember_state
	.cfi_def_cfa_offset 76
	pushl	%eax
	.cfi_def_cfa_offset 80
	call	__asan_report_load4
.LVL56:
.L182:
	.cfi_restore_state
	subl	$12, %esp
	.cfi_remember_state
	.cfi_def_cfa_offset 76
	pushl	%eax
	.cfi_def_cfa_offset 80
	call	__asan_report_load4
.LVL57:
.L181:
	.cfi_restore_state
	.loc 1 1950 0
	subl	$12, %esp
	.cfi_remember_state
	.cfi_def_cfa_offset 76
	pushl	%ecx
	.cfi_def_cfa_offset 80
	call	__asan_report_load4
.LVL58:
.L180:
	.cfi_restore_state
	movl	4(%esp), %ebx
	.loc 1 1947 0
	subl	$12, %esp
	.cfi_remember_state
	.cfi_def_cfa_offset 76
	pushl	%ebx
	.cfi_def_cfa_offset 80
	call	__asan_report_load4
.LVL59:
.L179:
	.cfi_restore_state
	subl	$12, %esp
	.cfi_remember_state
	.cfi_def_cfa_offset 76
	pushl	%eax
	.cfi_def_cfa_offset 80
	call	__asan_report_load4
.LVL60:
.L178:
	.cfi_restore_state
	.loc 1 1944 0
	subl	$12, %esp
	.cfi_remember_state
	.cfi_def_cfa_offset 76
	pushl	%edx
	.cfi_def_cfa_offset 80
	call	__asan_report_load4
.LVL61:
.L177:
	.cfi_restore_state
	subl	$12, %esp
	.cfi_def_cfa_offset 76
	pushl	%eax
	.cfi_def_cfa_offset 80
	call	__asan_report_load4
.LVL62:
	.cfi_endproc
.LFE23:
	.size	update_throttles, .-update_throttles
	.section	.text.unlikely
.LCOLDE7:
	.text
.LHOTE7:
	.section	.rodata
	.align 32
.LC8:
	.string	"%s: no value required for %s option\n"
	.zero	59
	.section	.text.unlikely
.LCOLDB9:
	.text
.LHOTB9:
	.p2align 4,,15
	.type	no_value_required, @function
no_value_required:
.LASANPC12:
.LFB12:
	.loc 1 1207 0
	.cfi_startproc
.LVL63:
	.loc 1 1208 0
	testl	%edx, %edx
	jne	.L206
	rep; ret
.L206:
	.loc 1 1210 0
	movl	$stderr, %edx
.LVL64:
	.loc 1 1207 0
	pushl	%ebx
	.cfi_def_cfa_offset 8
	.cfi_offset 3, -8
	.loc 1 1210 0
	movl	%edx, %ecx
	shrl	$3, %ecx
	.loc 1 1207 0
	subl	$8, %esp
	.cfi_def_cfa_offset 16
	.loc 1 1210 0
	movl	argv0, %ebx
	movzbl	536870912(%ecx), %ecx
	testb	%cl, %cl
	je	.L197
	andl	$7, %edx
	addl	$3, %edx
	cmpb	%cl, %dl
	jge	.L207
.L197:
	pushl	%eax
	.cfi_remember_state
	.cfi_def_cfa_offset 20
	pushl	%ebx
	.cfi_def_cfa_offset 24
	pushl	$.LC8
	.cfi_def_cfa_offset 28
	pushl	stderr
	.cfi_def_cfa_offset 32
	call	fprintf
.LVL65:
	.loc 1 1213 0
	call	__asan_handle_no_return
.LVL66:
	movl	$1, (%esp)
	call	exit
.LVL67:
.L207:
	.cfi_restore_state
	.loc 1 1210 0
	subl	$12, %esp
	.cfi_def_cfa_offset 28
	pushl	$stderr
	.cfi_def_cfa_offset 32
	call	__asan_report_load4
.LVL68:
	.cfi_endproc
.LFE12:
	.size	no_value_required, .-no_value_required
	.section	.text.unlikely
.LCOLDE9:
	.text
.LHOTE9:
	.section	.rodata
	.align 32
.LC10:
	.string	"%s: value required for %s option\n"
	.zero	62
	.section	.text.unlikely
.LCOLDB11:
	.text
.LHOTB11:
	.p2align 4,,15
	.type	value_required, @function
value_required:
.LASANPC11:
.LFB11:
	.loc 1 1195 0
	.cfi_startproc
.LVL69:
	.loc 1 1196 0
	testl	%edx, %edx
	je	.L219
	rep; ret
.L219:
	.loc 1 1198 0
	movl	$stderr, %edx
.LVL70:
	.loc 1 1195 0
	pushl	%ebx
	.cfi_def_cfa_offset 8
	.cfi_offset 3, -8
	.loc 1 1198 0
	movl	%edx, %ecx
	shrl	$3, %ecx
	.loc 1 1195 0
	subl	$8, %esp
	.cfi_def_cfa_offset 16
	.loc 1 1198 0
	movl	argv0, %ebx
	movzbl	536870912(%ecx), %ecx
	testb	%cl, %cl
	je	.L210
	andl	$7, %edx
	addl	$3, %edx
	cmpb	%cl, %dl
	jge	.L220
.L210:
	pushl	%eax
	.cfi_remember_state
	.cfi_def_cfa_offset 20
	pushl	%ebx
	.cfi_def_cfa_offset 24
	pushl	$.LC10
	.cfi_def_cfa_offset 28
	pushl	stderr
	.cfi_def_cfa_offset 32
	call	fprintf
.LVL71:
	.loc 1 1200 0
	call	__asan_handle_no_return
.LVL72:
	movl	$1, (%esp)
	call	exit
.LVL73:
.L220:
	.cfi_restore_state
	.loc 1 1198 0
	subl	$12, %esp
	.cfi_def_cfa_offset 28
	pushl	$stderr
	.cfi_def_cfa_offset 32
	call	__asan_report_load4
.LVL74:
	.cfi_endproc
.LFE11:
	.size	value_required, .-value_required
	.section	.text.unlikely
.LCOLDE11:
	.text
.LHOTE11:
	.section	.rodata
	.align 32
.LC12:
	.string	"usage:  %s [-C configfile] [-p port] [-d dir] [-r|-nor] [-dd data_dir] [-s|-nos] [-v|-nov] [-g|-nog] [-u user] [-c cgipat] [-t throttles] [-h host] [-l logfile] [-i pidfile] [-T charset] [-P P3P] [-M maxage] [-V] [-D]\n"
	.zero	37
	.section	.text.unlikely
.LCOLDB13:
.LHOTB13:
	.type	usage, @function
usage:
.LASANPC9:
.LFB9:
	.loc 1 990 0
	.cfi_startproc
	.loc 1 991 0
	movl	$stderr, %eax
	.loc 1 990 0
	subl	$12, %esp
	.cfi_def_cfa_offset 16
	.loc 1 991 0
	movl	argv0, %ecx
	movl	%eax, %edx
	shrl	$3, %edx
	movb	536870912(%edx), %dl
	testb	%dl, %dl
	je	.L222
	andl	$7, %eax
	addl	$3, %eax
	cmpb	%dl, %al
	jl	.L222
	subl	$12, %esp
	.cfi_remember_state
	.cfi_def_cfa_offset 28
	pushl	$stderr
	.cfi_def_cfa_offset 32
	call	__asan_report_load4
.LVL75:
.L222:
	.cfi_restore_state
	pushl	%eax
	.cfi_def_cfa_offset 20
	pushl	%ecx
	.cfi_def_cfa_offset 24
	pushl	$.LC12
	.cfi_def_cfa_offset 28
	pushl	stderr
	.cfi_def_cfa_offset 32
	call	fprintf
.LVL76:
	.loc 1 994 0
	call	__asan_handle_no_return
.LVL77:
	movl	$1, (%esp)
	call	exit
.LVL78:
	.cfi_endproc
.LFE9:
	.size	usage, .-usage
.LCOLDE13:
.LHOTE13:
.LCOLDB14:
	.text
.LHOTB14:
	.p2align 4,,15
	.type	wakeup_connection, @function
wakeup_connection:
.LASANPC28:
.LFB28:
	.loc 1 2105 0
	.cfi_startproc
.LVL79:
	pushl	%edi
	.cfi_def_cfa_offset 8
	.cfi_offset 7, -8
	pushl	%esi
	.cfi_def_cfa_offset 12
	.cfi_offset 6, -12
	pushl	%ebx
	.cfi_def_cfa_offset 16
	.cfi_offset 3, -16
	.loc 1 2108 0
	leal	16(%esp), %eax
.LVL80:
	shrl	$3, %eax
.LVL81:
	movzbl	536870912(%eax), %eax
	testb	%al, %al
	je	.L231
	leal	16(%esp), %edx
.LVL82:
	andl	$7, %edx
.LVL83:
	addl	$3, %edx
	cmpb	%al, %dl
	jge	.L275
.L231:
	movl	16(%esp), %eax
.LVL84:
	.loc 1 2109 0
	leal	72(%eax), %edx
	movl	%edx, %ecx
	shrl	$3, %ecx
	movzbl	536870912(%ecx), %ecx
	testb	%cl, %cl
	je	.L232
	movl	%edx, %ebx
	andl	$7, %ebx
	addl	$3, %ebx
	cmpb	%cl, %bl
	jge	.L276
.L232:
	.loc 1 2110 0
	movl	%eax, %edx
	.loc 1 2109 0
	movl	$0, 72(%eax)
	.loc 1 2110 0
	shrl	$3, %edx
	movzbl	536870912(%edx), %edx
	testb	%dl, %dl
	je	.L233
	movl	%eax, %ecx
	andl	$7, %ecx
	addl	$3, %ecx
	cmpb	%dl, %cl
	jge	.L277
.L233:
	cmpl	$3, (%eax)
	je	.L278
	.loc 1 2115 0
	popl	%ebx
	.cfi_remember_state
	.cfi_restore 3
	.cfi_def_cfa_offset 12
	popl	%esi
	.cfi_restore 6
	.cfi_def_cfa_offset 8
	popl	%edi
	.cfi_restore 7
	.cfi_def_cfa_offset 4
	ret
	.p2align 4,,10
	.p2align 3
.L278:
	.cfi_restore_state
	.loc 1 2112 0
	movl	%eax, %edx
	shrl	$3, %edx
	movzbl	536870912(%edx), %edx
	testb	%dl, %dl
	je	.L235
	movl	%eax, %ecx
	andl	$7, %ecx
	addl	$3, %ecx
	cmpb	%dl, %cl
	jge	.L279
.L235:
	.loc 1 2113 0
	leal	8(%eax), %edx
	.loc 1 2112 0
	movl	$2, (%eax)
	.loc 1 2113 0
	movl	%edx, %ecx
	shrl	$3, %ecx
	movzbl	536870912(%ecx), %ecx
	testb	%cl, %cl
	je	.L236
	movl	%edx, %ebx
	andl	$7, %ebx
	addl	$3, %ebx
	cmpb	%cl, %bl
	jge	.L280
.L236:
	movl	8(%eax), %edx
	leal	448(%edx), %edi
	movl	%edi, %ebx
	shrl	$3, %ebx
	movzbl	536870912(%ebx), %ebx
	testb	%bl, %bl
	je	.L237
	movl	%edi, %esi
	andl	$7, %esi
	addl	$3, %esi
	movl	%esi, %ecx
	cmpb	%bl, %cl
	jge	.L281
.L237:
	subl	$4, %esp
	.cfi_def_cfa_offset 20
	pushl	$1
	.cfi_def_cfa_offset 24
	pushl	%eax
	.cfi_def_cfa_offset 28
	pushl	448(%edx)
	.cfi_def_cfa_offset 32
	call	fdwatch_add_fd
.LVL85:
	addl	$16, %esp
	.cfi_def_cfa_offset 16
	.loc 1 2115 0
	popl	%ebx
	.cfi_remember_state
	.cfi_restore 3
	.cfi_def_cfa_offset 12
	popl	%esi
	.cfi_restore 6
	.cfi_def_cfa_offset 8
	popl	%edi
	.cfi_restore 7
	.cfi_def_cfa_offset 4
	ret
.LVL86:
.L277:
	.cfi_restore_state
	.loc 1 2110 0
	subl	$12, %esp
	.cfi_remember_state
	.cfi_def_cfa_offset 28
	pushl	%eax
	.cfi_def_cfa_offset 32
	call	__asan_report_load4
.LVL87:
.L276:
	.cfi_restore_state
	.loc 1 2109 0
	subl	$12, %esp
	.cfi_remember_state
	.cfi_def_cfa_offset 28
	pushl	%edx
	.cfi_def_cfa_offset 32
	call	__asan_report_store4
.LVL88:
.L275:
	.cfi_restore_state
	.loc 1 2108 0
	subl	$12, %esp
	.cfi_remember_state
	.cfi_def_cfa_offset 28
	leal	28(%esp), %eax
.LVL89:
	pushl	%eax
	.cfi_def_cfa_offset 32
	call	__asan_report_load4
.LVL90:
.L281:
	.cfi_restore_state
	.loc 1 2113 0
	subl	$12, %esp
	.cfi_remember_state
	.cfi_def_cfa_offset 28
	pushl	%edi
	.cfi_def_cfa_offset 32
	call	__asan_report_load4
.LVL91:
.L280:
	.cfi_restore_state
	subl	$12, %esp
	.cfi_remember_state
	.cfi_def_cfa_offset 28
	pushl	%edx
	.cfi_def_cfa_offset 32
	call	__asan_report_load4
.LVL92:
.L279:
	.cfi_restore_state
	.loc 1 2112 0
	subl	$12, %esp
	.cfi_def_cfa_offset 28
	pushl	%eax
	.cfi_def_cfa_offset 32
	call	__asan_report_store4
.LVL93:
	.cfi_endproc
.LFE28:
	.size	wakeup_connection, .-wakeup_connection
	.section	.text.unlikely
.LCOLDE14:
	.text
.LHOTE14:
	.globl	__asan_stack_malloc_1
	.section	.rodata.str1.1,"aMS",@progbits,1
.LC15:
	.string	"1 32 8 2 tv "
	.section	.rodata
	.align 32
.LC16:
	.string	"up %ld seconds, stats for %ld seconds:"
	.zero	57
	.section	.text.unlikely
.LCOLDB17:
	.text
.LHOTB17:
	.p2align 4,,15
	.type	logstats, @function
logstats:
.LASANPC32:
.LFB32:
	.loc 1 2149 0
	.cfi_startproc
.LVL94:
	pushl	%ebp
	.cfi_def_cfa_offset 8
	.cfi_offset 5, -8
	pushl	%edi
	.cfi_def_cfa_offset 12
	.cfi_offset 7, -12
	pushl	%esi
	.cfi_def_cfa_offset 16
	.cfi_offset 6, -16
	pushl	%ebx
	.cfi_def_cfa_offset 20
	.cfi_offset 3, -20
	movl	%eax, %ebx
	subl	$108, %esp
	.cfi_def_cfa_offset 128
	movl	__asan_option_detect_stack_use_after_return, %edx
	movl	%esp, %esi
	movl	%esp, %ebp
	testl	%edx, %edx
	jne	.L296
.LVL95:
.L282:
	.loc 1 2149 0
	movl	%esi, %edi
	movl	$1102416563, (%esi)
	movl	$.LC15, 4(%esi)
	shrl	$3, %edi
	.loc 1 2154 0
	testl	%ebx, %ebx
	.loc 1 2149 0
	movl	$.LASANPC32, 8(%esi)
	movl	$-235802127, 536870912(%edi)
	movl	$-185273344, 536870916(%edi)
	movl	$-202116109, 536870920(%edi)
	.loc 1 2154 0
	je	.L297
.LVL96:
.L286:
	.loc 1 2159 0
	movl	%ebx, %eax
	shrl	$3, %eax
	movzbl	536870912(%eax), %eax
	testb	%al, %al
	je	.L287
	movl	%ebx, %edx
	andl	$7, %edx
	addl	$3, %edx
	cmpb	%al, %dl
	jge	.L298
.L287:
	movl	(%ebx), %eax
.LVL97:
	.loc 1 2163 0
	movl	$1, %ecx
	.loc 1 2160 0
	movl	%eax, %edx
	.loc 1 2163 0
	movl	%eax, %ebx
.LVL98:
	.loc 1 2160 0
	subl	start_time, %edx
.LVL99:
	.loc 1 2163 0
	subl	stats_time, %ebx
.LVL100:
	.loc 1 2164 0
	movl	%eax, stats_time
	.loc 1 2163 0
	cmove	%ecx, %ebx
.LVL101:
	.loc 1 2165 0
	pushl	%ebx
	.cfi_def_cfa_offset 132
	pushl	%edx
	.cfi_def_cfa_offset 136
	pushl	$.LC16
	.cfi_def_cfa_offset 140
	pushl	$6
	.cfi_def_cfa_offset 144
	call	syslog
.LVL102:
	.loc 1 2168 0
	movl	%ebx, %eax
	call	thttpd_logstats
.LVL103:
	.loc 1 2169 0
	movl	%ebx, (%esp)
	call	httpd_logstats
.LVL104:
	.loc 1 2170 0
	movl	%ebx, (%esp)
	call	mmc_logstats
.LVL105:
	.loc 1 2171 0
	movl	%ebx, (%esp)
	call	fdwatch_logstats
.LVL106:
	.loc 1 2172 0
	movl	%ebx, (%esp)
	call	tmr_logstats
.LVL107:
	addl	$16, %esp
	.cfi_def_cfa_offset 128
	.loc 1 2149 0
	cmpl	%esi, %ebp
	jne	.L299
	movl	$0, 536870912(%edi)
	movl	$0, 536870916(%edi)
	movl	$0, 536870920(%edi)
.L284:
	.loc 1 2173 0
	addl	$108, %esp
	.cfi_remember_state
	.cfi_def_cfa_offset 20
	popl	%ebx
	.cfi_restore 3
	.cfi_def_cfa_offset 16
.LVL108:
	popl	%esi
	.cfi_restore 6
	.cfi_def_cfa_offset 12
	popl	%edi
	.cfi_restore 7
	.cfi_def_cfa_offset 8
	popl	%ebp
	.cfi_restore 5
	.cfi_def_cfa_offset 4
	ret
.LVL109:
	.p2align 4,,10
	.p2align 3
.L297:
	.cfi_restore_state
	.loc 1 2156 0
	leal	32(%esi), %ebx
.LVL110:
	subl	$8, %esp
	.cfi_def_cfa_offset 136
	pushl	$0
	.cfi_def_cfa_offset 140
	pushl	%ebx
	.cfi_def_cfa_offset 144
	call	gettimeofday
.LVL111:
	addl	$16, %esp
	.cfi_def_cfa_offset 128
	jmp	.L286
.LVL112:
.L298:
	.loc 1 2159 0
	subl	$12, %esp
	.cfi_remember_state
	.cfi_def_cfa_offset 140
	pushl	%ebx
	.cfi_def_cfa_offset 144
	call	__asan_report_load4
.LVL113:
.L296:
	.cfi_restore_state
.LVL114:
	.loc 1 2149 0
	pushl	%eax
	.cfi_def_cfa_offset 132
	pushl	%eax
	.cfi_def_cfa_offset 136
	pushl	%esi
	.cfi_def_cfa_offset 140
	pushl	$96
	.cfi_def_cfa_offset 144
	call	__asan_stack_malloc_1
.LVL115:
	addl	$16, %esp
	.cfi_def_cfa_offset 128
	movl	%eax, %esi
	jmp	.L282
.LVL116:
.L299:
	movl	$1172321806, (%esi)
	movl	$-168430091, 536870912(%edi)
	movl	$-168430091, 536870916(%edi)
	movl	$-168430091, 536870920(%edi)
	jmp	.L284
	.cfi_endproc
.LFE32:
	.size	logstats, .-logstats
	.section	.text.unlikely
.LCOLDE17:
	.text
.LHOTE17:
	.section	.text.unlikely
.LCOLDB18:
	.text
.LHOTB18:
	.p2align 4,,15
	.type	show_stats, @function
show_stats:
.LASANPC31:
.LFB31:
	.loc 1 2140 0
	.cfi_startproc
.LVL117:
	.loc 1 2141 0
	movl	8(%esp), %eax
	jmp	logstats
.LVL118:
	.cfi_endproc
.LFE31:
	.size	show_stats, .-show_stats
	.section	.text.unlikely
.LCOLDE18:
	.text
.LHOTE18:
	.section	.text.unlikely
.LCOLDB19:
	.text
.LHOTB19:
	.p2align 4,,15
	.type	handle_usr2, @function
handle_usr2:
.LASANPC4:
.LFB4:
	.loc 1 282 0
	.cfi_startproc
.LVL119:
	pushl	%esi
	.cfi_def_cfa_offset 8
	.cfi_offset 6, -8
	pushl	%ebx
	.cfi_def_cfa_offset 12
	.cfi_offset 3, -12
	subl	$4, %esp
	.cfi_def_cfa_offset 16
	.loc 1 283 0
	call	__errno_location
.LVL120:
	movl	%eax, %ebx
	shrl	$3, %eax
	movzbl	536870912(%eax), %eax
	testb	%al, %al
	je	.L302
	movl	%ebx, %edx
	andl	$7, %edx
	addl	$3, %edx
	cmpb	%al, %dl
	jge	.L317
.L302:
	.loc 1 290 0
	xorl	%eax, %eax
	.loc 1 283 0
	movl	(%ebx), %esi
.LVL121:
	.loc 1 290 0
	call	logstats
.LVL122:
	.loc 1 293 0
	movl	%ebx, %eax
	shrl	$3, %eax
	movzbl	536870912(%eax), %eax
	testb	%al, %al
	je	.L303
	movl	%ebx, %edx
	andl	$7, %edx
	addl	$3, %edx
	cmpb	%al, %dl
	jge	.L318
.L303:
	movl	%esi, (%ebx)
	.loc 1 294 0
	addl	$4, %esp
	.cfi_remember_state
	.cfi_def_cfa_offset 12
	popl	%ebx
	.cfi_restore 3
	.cfi_def_cfa_offset 8
	popl	%esi
	.cfi_restore 6
	.cfi_def_cfa_offset 4
.LVL123:
	ret
.LVL124:
.L318:
	.cfi_restore_state
	.loc 1 293 0
	subl	$12, %esp
	.cfi_remember_state
	.cfi_def_cfa_offset 28
	pushl	%ebx
	.cfi_def_cfa_offset 32
	call	__asan_report_store4
.LVL125:
.L317:
	.cfi_restore_state
	.loc 1 283 0
	subl	$12, %esp
	.cfi_def_cfa_offset 28
	pushl	%ebx
	.cfi_def_cfa_offset 32
	call	__asan_report_load4
.LVL126:
	.cfi_endproc
.LFE4:
	.size	handle_usr2, .-handle_usr2
	.section	.text.unlikely
.LCOLDE19:
	.text
.LHOTE19:
	.section	.text.unlikely
.LCOLDB20:
	.text
.LHOTB20:
	.p2align 4,,15
	.type	occasional, @function
occasional:
.LASANPC30:
.LFB30:
	.loc 1 2130 0
	.cfi_startproc
.LVL127:
	subl	$24, %esp
	.cfi_def_cfa_offset 28
	.loc 1 2131 0
	pushl	32(%esp)
	.cfi_def_cfa_offset 32
	call	mmc_cleanup
.LVL128:
	.loc 1 2132 0
	call	tmr_cleanup
.LVL129:
	.loc 1 2133 0
	movl	$1, watchdog_flag
	.loc 1 2134 0
	addl	$28, %esp
	.cfi_def_cfa_offset 4
	ret
	.cfi_endproc
.LFE30:
	.size	occasional, .-occasional
	.section	.text.unlikely
.LCOLDE20:
	.text
.LHOTE20:
	.section	.rodata
	.align 32
.LC21:
	.string	"/tmp"
	.zero	59
	.section	.text.unlikely
.LCOLDB22:
	.text
.LHOTB22:
	.p2align 4,,15
	.type	handle_alrm, @function
handle_alrm:
.LASANPC5:
.LFB5:
	.loc 1 300 0
	.cfi_startproc
.LVL130:
	pushl	%esi
	.cfi_def_cfa_offset 8
	.cfi_offset 6, -8
	pushl	%ebx
	.cfi_def_cfa_offset 12
	.cfi_offset 3, -12
	subl	$4, %esp
	.cfi_def_cfa_offset 16
	.loc 1 301 0
	call	__errno_location
.LVL131:
	movl	%eax, %ebx
	shrl	$3, %eax
	movzbl	536870912(%eax), %eax
	testb	%al, %al
	je	.L322
	movl	%ebx, %edx
	andl	$7, %edx
	addl	$3, %edx
	cmpb	%al, %dl
	jge	.L338
.L322:
	.loc 1 304 0
	movl	watchdog_flag, %eax
	.loc 1 301 0
	movl	(%ebx), %esi
.LVL132:
	.loc 1 304 0
	testl	%eax, %eax
	je	.L339
	.loc 1 318 0
	subl	$12, %esp
	.cfi_def_cfa_offset 28
	.loc 1 311 0
	movl	$0, watchdog_flag
	.loc 1 318 0
	pushl	$360
	.cfi_def_cfa_offset 32
	call	alarm
.LVL133:
	.loc 1 321 0
	movl	%ebx, %eax
	addl	$16, %esp
	.cfi_def_cfa_offset 16
	shrl	$3, %eax
	movzbl	536870912(%eax), %eax
	testb	%al, %al
	je	.L324
	movl	%ebx, %edx
	andl	$7, %edx
	addl	$3, %edx
	cmpb	%al, %dl
	jge	.L340
.L324:
	movl	%esi, (%ebx)
	.loc 1 322 0
	addl	$4, %esp
	.cfi_remember_state
	.cfi_def_cfa_offset 12
	popl	%ebx
	.cfi_restore 3
	.cfi_def_cfa_offset 8
	popl	%esi
	.cfi_restore 6
	.cfi_def_cfa_offset 4
.LVL134:
	ret
.LVL135:
.L340:
	.cfi_restore_state
	.loc 1 321 0
	subl	$12, %esp
	.cfi_remember_state
	.cfi_def_cfa_offset 28
	pushl	%ebx
	.cfi_def_cfa_offset 32
	call	__asan_report_store4
.LVL136:
.L338:
	.cfi_restore_state
	.loc 1 301 0
	subl	$12, %esp
	.cfi_remember_state
	.cfi_def_cfa_offset 28
	pushl	%ebx
	.cfi_def_cfa_offset 32
	call	__asan_report_load4
.LVL137:
.L339:
	.cfi_restore_state
	.loc 1 307 0
	subl	$12, %esp
	.cfi_def_cfa_offset 28
	pushl	$.LC21
	.cfi_def_cfa_offset 32
	call	chdir
.LVL138:
	.loc 1 309 0
	call	__asan_handle_no_return
.LVL139:
	call	abort
.LVL140:
	.cfi_endproc
.LFE5:
	.size	handle_alrm, .-handle_alrm
	.section	.text.unlikely
.LCOLDE22:
	.text
.LHOTE22:
	.section	.rodata.str1.1
.LC23:
	.string	"1 32 4 6 status "
	.section	.rodata
	.align 32
.LC24:
	.string	"child wait - %m"
	.zero	48
	.section	.text.unlikely
.LCOLDB25:
	.text
.LHOTB25:
	.p2align 4,,15
	.type	handle_chld, @function
handle_chld:
.LASANPC1:
.LFB1:
	.loc 1 185 0
	.cfi_startproc
.LVL141:
	pushl	%ebp
	.cfi_def_cfa_offset 8
	.cfi_offset 5, -8
	pushl	%edi
	.cfi_def_cfa_offset 12
	.cfi_offset 7, -12
	pushl	%esi
	.cfi_def_cfa_offset 16
	.cfi_offset 6, -16
	pushl	%ebx
	.cfi_def_cfa_offset 20
	.cfi_offset 3, -20
	subl	$124, %esp
	.cfi_def_cfa_offset 144
	movl	__asan_option_detect_stack_use_after_return, %eax
	leal	16(%esp), %esi
	testl	%eax, %eax
	jne	.L398
.L341:
	.loc 1 185 0
	movl	%esi, %ebp
	movl	$1102416563, (%esi)
	movl	$.LC23, 4(%esi)
	shrl	$3, %ebp
	movl	$.LASANPC1, 8(%esi)
	leal	96(%esi), %edi
	movl	$-235802127, 536870912(%ebp)
	movl	$-185273340, 536870916(%ebp)
	movl	$-202116109, 536870920(%ebp)
	.loc 1 186 0
	call	__errno_location
.LVL142:
	movl	%eax, %ebx
	shrl	$3, %eax
	movzbl	536870912(%eax), %eax
	testb	%al, %al
	je	.L345
	movl	%ebx, %edx
	andl	$7, %edx
	addl	$3, %edx
	cmpb	%al, %dl
	jge	.L399
.L345:
	movl	(%ebx), %eax
	subl	$64, %edi
	.loc 1 207 0
	movl	%ebx, 4(%esp)
	.loc 1 186 0
	movl	%eax, 8(%esp)
.LVL143:
	.loc 1 207 0
	movl	%ebx, %eax
.LVL144:
	andl	$7, %eax
.LVL145:
	addl	$3, %eax
	movb	%al, 15(%esp)
.LVL146:
	.p2align 4,,10
	.p2align 3
.L346:
	.loc 1 199 0
	subl	$4, %esp
	.cfi_def_cfa_offset 148
	pushl	$1
	.cfi_def_cfa_offset 152
	pushl	%edi
	.cfi_def_cfa_offset 156
	pushl	$-1
	.cfi_def_cfa_offset 160
	call	waitpid
.LVL147:
	.loc 1 203 0
	addl	$16, %esp
	.cfi_def_cfa_offset 144
	testl	%eax, %eax
	je	.L396
	.loc 1 205 0
	js	.L400
	.loc 1 222 0
	movl	hs, %edx
	testl	%edx, %edx
	je	.L346
	.loc 1 224 0
	leal	20(%edx), %eax
.LVL148:
	movl	%eax, %ecx
	shrl	$3, %ecx
	movzbl	536870912(%ecx), %ecx
	testb	%cl, %cl
	je	.L352
	movl	%eax, %ebx
	andl	$7, %ebx
	addl	$3, %ebx
	cmpb	%cl, %bl
	jge	.L401
.L352:
	.loc 1 225 0
	movl	20(%edx), %ecx
	subl	$1, %ecx
	js	.L353
	.loc 1 224 0
	movl	%ecx, 20(%edx)
	jmp	.L346
.LVL149:
	.p2align 4,,10
	.p2align 3
.L400:
	.loc 1 207 0
	movl	4(%esp), %eax
.LVL150:
	movl	4(%esp), %ebx
	shrl	$3, %eax
	movzbl	536870912(%eax), %eax
	testb	%al, %al
	je	.L349
	cmpb	%al, 15(%esp)
	jge	.L402
.L349:
	movl	(%ebx), %eax
	cmpl	$11, %eax
	je	.L346
	cmpl	$4, %eax
	je	.L346
	.loc 1 212 0
	cmpl	$10, %eax
	je	.L351
	.loc 1 213 0
	subl	$8, %esp
	.cfi_def_cfa_offset 152
	pushl	$.LC24
	.cfi_def_cfa_offset 156
	pushl	$3
	.cfi_def_cfa_offset 160
	call	syslog
.LVL151:
	addl	$16, %esp
	.cfi_def_cfa_offset 144
.L351:
	.loc 1 231 0
	movl	%ebx, %eax
	shrl	$3, %eax
	movzbl	536870912(%eax), %eax
	testb	%al, %al
	je	.L356
	movl	%ebx, %edx
	andl	$7, %edx
	addl	$3, %edx
	cmpb	%al, %dl
	jge	.L403
.L356:
	movl	8(%esp), %eax
	movl	%eax, (%ebx)
	.loc 1 185 0
	leal	16(%esp), %eax
	cmpl	%esi, %eax
	jne	.L404
	movl	$0, 536870912(%ebp)
	movl	$0, 536870916(%ebp)
	movl	$0, 536870920(%ebp)
.LVL152:
.L343:
	.loc 1 232 0
	addl	$124, %esp
	.cfi_remember_state
	.cfi_def_cfa_offset 20
	popl	%ebx
	.cfi_restore 3
	.cfi_def_cfa_offset 16
	popl	%esi
	.cfi_restore 6
	.cfi_def_cfa_offset 12
	popl	%edi
	.cfi_restore 7
	.cfi_def_cfa_offset 8
	popl	%ebp
	.cfi_restore 5
	.cfi_def_cfa_offset 4
	ret
.LVL153:
	.p2align 4,,10
	.p2align 3
.L353:
	.cfi_restore_state
	.loc 1 226 0
	movl	%eax, %ecx
	shrl	$3, %ecx
	movzbl	536870912(%ecx), %ecx
	testb	%cl, %cl
	je	.L354
	movl	%eax, %ebx
	andl	$7, %ebx
	addl	$3, %ebx
	cmpb	%cl, %bl
	jge	.L405
.L354:
	movl	$0, 20(%edx)
	jmp	.L346
.LVL154:
	.p2align 4,,10
	.p2align 3
.L396:
	movl	4(%esp), %ebx
	jmp	.L351
.LVL155:
.L405:
	subl	$12, %esp
	.cfi_remember_state
	.cfi_def_cfa_offset 156
	pushl	%eax
	.cfi_def_cfa_offset 160
	call	__asan_report_store4
.LVL156:
	.p2align 4,,10
	.p2align 3
.L404:
	.cfi_restore_state
	.loc 1 185 0
	movl	$1172321806, (%esi)
.LVL157:
	movl	$-168430091, 536870912(%ebp)
	movl	$-168430091, 536870916(%ebp)
	movl	$-168430091, 536870920(%ebp)
	jmp	.L343
.L398:
	subl	$8, %esp
	.cfi_def_cfa_offset 152
	pushl	%esi
	.cfi_def_cfa_offset 156
	pushl	$96
	.cfi_def_cfa_offset 160
	call	__asan_stack_malloc_1
.LVL158:
	addl	$16, %esp
	.cfi_def_cfa_offset 144
	movl	%eax, %esi
	jmp	.L341
.LVL159:
.L403:
	.loc 1 231 0
	subl	$12, %esp
	.cfi_remember_state
	.cfi_def_cfa_offset 156
	pushl	%ebx
	.cfi_def_cfa_offset 160
	call	__asan_report_store4
.LVL160:
.L399:
	.cfi_restore_state
	.loc 1 186 0
	subl	$12, %esp
	.cfi_remember_state
	.cfi_def_cfa_offset 156
	pushl	%ebx
	.cfi_def_cfa_offset 160
	call	__asan_report_load4
.LVL161:
.L402:
	.cfi_restore_state
	.loc 1 207 0
	subl	$12, %esp
	.cfi_remember_state
	.cfi_def_cfa_offset 156
	pushl	%ebx
	.cfi_def_cfa_offset 160
	call	__asan_report_load4
.LVL162:
.L401:
	.cfi_restore_state
	.loc 1 224 0
	subl	$12, %esp
	.cfi_def_cfa_offset 156
	pushl	%eax
	.cfi_def_cfa_offset 160
	call	__asan_report_load4
.LVL163:
	.cfi_endproc
.LFE1:
	.size	handle_chld, .-handle_chld
	.section	.text.unlikely
.LCOLDE25:
	.text
.LHOTE25:
	.section	.rodata
	.align 32
.LC26:
	.string	"out of memory copying a string"
	.zero	33
	.align 32
.LC27:
	.string	"%s: out of memory copying a string\n"
	.zero	60
	.section	.text.unlikely
.LCOLDB28:
	.text
.LHOTB28:
	.p2align 4,,15
	.type	e_strdup, @function
e_strdup:
.LASANPC13:
.LFB13:
	.loc 1 1220 0
	.cfi_startproc
.LVL164:
	subl	$24, %esp
	.cfi_def_cfa_offset 28
	.loc 1 1223 0
	pushl	%eax
	.cfi_def_cfa_offset 32
	call	strdup
.LVL165:
	.loc 1 1224 0
	addl	$16, %esp
	.cfi_def_cfa_offset 16
	testl	%eax, %eax
	je	.L416
	.loc 1 1231 0
	addl	$12, %esp
	.cfi_remember_state
	.cfi_def_cfa_offset 4
	ret
.L416:
	.cfi_restore_state
	.loc 1 1226 0
	pushl	%edx
	.cfi_def_cfa_offset 20
	pushl	%edx
	.cfi_def_cfa_offset 24
	pushl	$.LC26
	.cfi_def_cfa_offset 28
	pushl	$2
	.cfi_def_cfa_offset 32
	call	syslog
.LVL166:
	.loc 1 1227 0
	movl	$stderr, %eax
	addl	$16, %esp
	.cfi_def_cfa_offset 16
	movl	argv0, %ecx
	movl	%eax, %edx
	shrl	$3, %edx
	movzbl	536870912(%edx), %edx
	testb	%dl, %dl
	je	.L408
	andl	$7, %eax
	addl	$3, %eax
	cmpb	%dl, %al
	jge	.L417
.L408:
	pushl	%eax
	.cfi_remember_state
	.cfi_def_cfa_offset 20
	pushl	%ecx
	.cfi_def_cfa_offset 24
	pushl	$.LC27
	.cfi_def_cfa_offset 28
	pushl	stderr
	.cfi_def_cfa_offset 32
	call	fprintf
.LVL167:
	.loc 1 1228 0
	call	__asan_handle_no_return
.LVL168:
	movl	$1, (%esp)
	call	exit
.LVL169:
.L417:
	.cfi_restore_state
	.loc 1 1227 0
	subl	$12, %esp
	.cfi_def_cfa_offset 28
	pushl	$stderr
	.cfi_def_cfa_offset 32
	call	__asan_report_load4
.LVL170:
	.cfi_endproc
.LFE13:
	.size	e_strdup, .-e_strdup
	.section	.text.unlikely
.LCOLDE28:
	.text
.LHOTE28:
	.globl	__asan_stack_malloc_2
	.section	.rodata.str1.1
.LC29:
	.string	"1 32 100 4 line "
	.section	.rodata
	.align 32
.LC30:
	.string	"r"
	.zero	62
	.align 32
.LC31:
	.string	" \t\n\r"
	.zero	59
	.align 32
.LC32:
	.string	"debug"
	.zero	58
	.align 32
.LC33:
	.string	"port"
	.zero	59
	.align 32
.LC34:
	.string	"dir"
	.zero	60
	.align 32
.LC35:
	.string	"chroot"
	.zero	57
	.align 32
.LC36:
	.string	"nochroot"
	.zero	55
	.align 32
.LC37:
	.string	"data_dir"
	.zero	55
	.align 32
.LC38:
	.string	"symlink"
	.zero	56
	.align 32
.LC39:
	.string	"nosymlink"
	.zero	54
	.align 32
.LC40:
	.string	"symlinks"
	.zero	55
	.align 32
.LC41:
	.string	"nosymlinks"
	.zero	53
	.align 32
.LC42:
	.string	"user"
	.zero	59
	.align 32
.LC43:
	.string	"cgipat"
	.zero	57
	.align 32
.LC44:
	.string	"cgilimit"
	.zero	55
	.align 32
.LC45:
	.string	"urlpat"
	.zero	57
	.align 32
.LC46:
	.string	"noemptyreferers"
	.zero	48
	.align 32
.LC47:
	.string	"localpat"
	.zero	55
	.align 32
.LC48:
	.string	"throttles"
	.zero	54
	.align 32
.LC49:
	.string	"host"
	.zero	59
	.align 32
.LC50:
	.string	"logfile"
	.zero	56
	.align 32
.LC51:
	.string	"vhost"
	.zero	58
	.align 32
.LC52:
	.string	"novhost"
	.zero	56
	.align 32
.LC53:
	.string	"globalpasswd"
	.zero	51
	.align 32
.LC54:
	.string	"noglobalpasswd"
	.zero	49
	.align 32
.LC55:
	.string	"pidfile"
	.zero	56
	.align 32
.LC56:
	.string	"charset"
	.zero	56
	.align 32
.LC57:
	.string	"p3p"
	.zero	60
	.align 32
.LC58:
	.string	"max_age"
	.zero	56
	.align 32
.LC59:
	.string	"%s: unknown config option '%s'\n"
	.zero	32
	.section	.text.unlikely
.LCOLDB60:
	.text
.LHOTB60:
	.p2align 4,,15
	.type	read_config, @function
read_config:
.LASANPC10:
.LFB10:
	.loc 1 1000 0
	.cfi_startproc
.LVL171:
	pushl	%ebp
	.cfi_def_cfa_offset 8
	.cfi_offset 5, -8
	pushl	%edi
	.cfi_def_cfa_offset 12
	.cfi_offset 7, -12
	pushl	%esi
	.cfi_def_cfa_offset 16
	.cfi_offset 6, -16
	pushl	%ebx
	.cfi_def_cfa_offset 20
	.cfi_offset 3, -20
	movl	%eax, %ebx
	subl	$220, %esp
	.cfi_def_cfa_offset 240
	leal	16(%esp), %eax
.LVL172:
	movl	%eax, 4(%esp)
	movl	__asan_option_detect_stack_use_after_return, %eax
	testl	%eax, %eax
	jne	.L531
.L418:
	.loc 1 1000 0
	movl	4(%esp), %esi
	.loc 1 1008 0
	subl	$8, %esp
	.cfi_def_cfa_offset 248
	.loc 1 1000 0
	movl	%esi, %edi
	movl	$1102416563, (%esi)
	movl	$.LC29, 4(%esi)
	shrl	$3, %edi
	movl	$.LASANPC10, 8(%esi)
	movl	$-235802127, 536870912(%edi)
	movl	$-185273340, 536870928(%edi)
	movl	$-202116109, 536870932(%edi)
	.loc 1 1008 0
	pushl	$.LC30
	.cfi_def_cfa_offset 252
	pushl	%ebx
	.cfi_def_cfa_offset 256
	call	fopen
.LVL173:
	movl	%eax, 28(%esp)
.LVL174:
	.loc 1 1009 0
	addl	$16, %esp
	.cfi_def_cfa_offset 240
	testl	%eax, %eax
	je	.L526
	movl	%esi, %eax
.LVL175:
	addl	$32, %eax
	movl	%eax, 8(%esp)
.LVL176:
.L422:
	.loc 1 1015 0
	subl	$4, %esp
	.cfi_def_cfa_offset 244
	pushl	16(%esp)
	.cfi_def_cfa_offset 248
	pushl	$1000
	.cfi_def_cfa_offset 252
	pushl	20(%esp)
	.cfi_def_cfa_offset 256
	call	fgets
.LVL177:
	addl	$16, %esp
	.cfi_def_cfa_offset 240
	testl	%eax, %eax
	je	.L532
	.loc 1 1018 0
	subl	$8, %esp
	.cfi_def_cfa_offset 248
	pushl	$35
	.cfi_def_cfa_offset 252
	pushl	20(%esp)
	.cfi_def_cfa_offset 256
	call	strchr
.LVL178:
	addl	$16, %esp
	.cfi_def_cfa_offset 240
.LVL179:
	testl	%eax, %eax
	je	.L423
	.loc 1 1019 0
	movl	%eax, %edx
	shrl	$3, %edx
	movzbl	536870912(%edx), %edx
	testb	%dl, %dl
	je	.L424
	movl	%eax, %ecx
	andl	$7, %ecx
	cmpb	%cl, %dl
	jle	.L533
.L424:
	movb	$0, (%eax)
.L423:
.LVL180:
	.loc 1 1023 0
	subl	$8, %esp
	.cfi_def_cfa_offset 248
	pushl	$.LC31
	.cfi_def_cfa_offset 252
	movl	20(%esp), %esi
	pushl	%esi
	.cfi_def_cfa_offset 256
	call	strspn
.LVL181:
	addl	%eax, %esi
.LVL182:
	addl	$16, %esp
	.cfi_def_cfa_offset 240
	.loc 1 1026 0
	movl	%esi, %eax
	shrl	$3, %eax
	movzbl	536870912(%eax), %eax
	testb	%al, %al
	je	.L425
	movl	%esi, %edx
	andl	$7, %edx
	cmpb	%dl, %al
	jle	.L534
	.p2align 4,,10
	.p2align 3
.L425:
	cmpb	$0, (%esi)
	je	.L422
	.loc 1 1029 0
	subl	$8, %esp
	.cfi_def_cfa_offset 248
	pushl	$.LC31
	.cfi_def_cfa_offset 252
	pushl	%esi
	.cfi_def_cfa_offset 256
	call	strcspn
.LVL183:
	addl	%esi, %eax
.LVL184:
	addl	$16, %esp
	.cfi_def_cfa_offset 240
	.loc 1 1031 0
	movl	%eax, %edx
	shrl	$3, %edx
	movzbl	536870912(%edx), %edx
	testb	%dl, %dl
	je	.L427
	movl	%eax, %ecx
	andl	$7, %ecx
	cmpb	%cl, %dl
	jle	.L535
.L427:
	movzbl	(%eax), %edx
	cmpb	$13, %dl
	sete	%bl
	cmpb	$32, %dl
	sete	%cl
	orb	%cl, %bl
	jne	.L527
	subl	$9, %edx
	cmpb	$1, %dl
	ja	.L468
.L527:
	movl	%eax, (%esp)
.LVL185:
	.p2align 4,,10
	.p2align 3
.L508:
	.loc 1 1032 0
	movl	(%esp), %eax
	movl	%eax, %edx
	leal	1(%eax), %ebx
.LVL186:
	shrl	$3, %edx
	movzbl	536870912(%edx), %edx
	testb	%dl, %dl
	je	.L430
	movl	%eax, %ecx
	andl	$7, %ecx
	cmpb	%cl, %dl
	jle	.L536
.L430:
	.loc 1 1031 0
	movl	%ebx, %eax
	.loc 1 1032 0
	movb	$0, -1(%ebx)
.LVL187:
	.loc 1 1031 0
	shrl	$3, %eax
.LVL188:
	movzbl	536870912(%eax), %eax
	testb	%al, %al
	je	.L431
	movl	%ebx, %edx
	andl	$7, %edx
	cmpb	%dl, %al
	jle	.L537
.L431:
	movzbl	(%ebx), %edx
	movl	%ebx, (%esp)
	cmpb	$13, %dl
	sete	%cl
	cmpb	$32, %dl
	movl	%ecx, %ebp
	sete	%cl
	movl	%ebp, %eax
	orb	%cl, %al
	jne	.L508
	subl	$9, %edx
	cmpb	$1, %dl
	jbe	.L508
.L428:
.LVL189:
	.loc 1 1035 0
	subl	$8, %esp
	.cfi_def_cfa_offset 248
	pushl	$61
	.cfi_def_cfa_offset 252
	pushl	%esi
	.cfi_def_cfa_offset 256
	call	strchr
.LVL190:
	addl	$16, %esp
	.cfi_def_cfa_offset 240
.LVL191:
	.loc 1 1036 0
	testl	%eax, %eax
	je	.L469
	.loc 1 1037 0
	movl	%eax, %edx
	leal	1(%eax), %ebp
.LVL192:
	shrl	$3, %edx
	movzbl	536870912(%edx), %edx
	testb	%dl, %dl
	je	.L434
	movl	%eax, %ecx
	andl	$7, %ecx
	cmpb	%cl, %dl
	jle	.L538
.L434:
	movb	$0, (%eax)
.LVL193:
.L433:
	.loc 1 1039 0
	subl	$8, %esp
	.cfi_def_cfa_offset 248
	pushl	$.LC32
	.cfi_def_cfa_offset 252
	pushl	%esi
	.cfi_def_cfa_offset 256
	call	strcasecmp
.LVL194:
	addl	$16, %esp
	.cfi_def_cfa_offset 240
	testl	%eax, %eax
	je	.L539
	.loc 1 1044 0
	subl	$8, %esp
	.cfi_def_cfa_offset 248
	pushl	$.LC33
	.cfi_def_cfa_offset 252
	pushl	%esi
	.cfi_def_cfa_offset 256
	call	strcasecmp
.LVL195:
	addl	$16, %esp
	.cfi_def_cfa_offset 240
	testl	%eax, %eax
	je	.L540
	.loc 1 1049 0
	subl	$8, %esp
	.cfi_def_cfa_offset 248
	pushl	$.LC34
	.cfi_def_cfa_offset 252
	pushl	%esi
	.cfi_def_cfa_offset 256
	call	strcasecmp
.LVL196:
	addl	$16, %esp
	.cfi_def_cfa_offset 240
	testl	%eax, %eax
	je	.L541
	.loc 1 1054 0
	subl	$8, %esp
	.cfi_def_cfa_offset 248
	pushl	$.LC35
	.cfi_def_cfa_offset 252
	pushl	%esi
	.cfi_def_cfa_offset 256
	call	strcasecmp
.LVL197:
	addl	$16, %esp
	.cfi_def_cfa_offset 240
	testl	%eax, %eax
	je	.L542
	.loc 1 1060 0
	subl	$8, %esp
	.cfi_def_cfa_offset 248
	pushl	$.LC36
	.cfi_def_cfa_offset 252
	pushl	%esi
	.cfi_def_cfa_offset 256
	call	strcasecmp
.LVL198:
	addl	$16, %esp
	.cfi_def_cfa_offset 240
	testl	%eax, %eax
	je	.L543
	.loc 1 1066 0
	subl	$8, %esp
	.cfi_def_cfa_offset 248
	pushl	$.LC37
	.cfi_def_cfa_offset 252
	pushl	%esi
	.cfi_def_cfa_offset 256
	call	strcasecmp
.LVL199:
	addl	$16, %esp
	.cfi_def_cfa_offset 240
	testl	%eax, %eax
	je	.L544
	.loc 1 1071 0
	subl	$8, %esp
	.cfi_def_cfa_offset 248
	pushl	$.LC38
	.cfi_def_cfa_offset 252
	pushl	%esi
	.cfi_def_cfa_offset 256
	call	strcasecmp
.LVL200:
	addl	$16, %esp
	.cfi_def_cfa_offset 240
	testl	%eax, %eax
	je	.L529
	.loc 1 1076 0
	subl	$8, %esp
	.cfi_def_cfa_offset 248
	pushl	$.LC39
	.cfi_def_cfa_offset 252
	pushl	%esi
	.cfi_def_cfa_offset 256
	call	strcasecmp
.LVL201:
	addl	$16, %esp
	.cfi_def_cfa_offset 240
	testl	%eax, %eax
	je	.L530
	.loc 1 1081 0
	subl	$8, %esp
	.cfi_def_cfa_offset 248
	pushl	$.LC40
	.cfi_def_cfa_offset 252
	pushl	%esi
	.cfi_def_cfa_offset 256
	call	strcasecmp
.LVL202:
	addl	$16, %esp
	.cfi_def_cfa_offset 240
	testl	%eax, %eax
	je	.L529
	.loc 1 1086 0
	subl	$8, %esp
	.cfi_def_cfa_offset 248
	pushl	$.LC41
	.cfi_def_cfa_offset 252
	pushl	%esi
	.cfi_def_cfa_offset 256
	call	strcasecmp
.LVL203:
	addl	$16, %esp
	.cfi_def_cfa_offset 240
	testl	%eax, %eax
	je	.L530
	.loc 1 1091 0
	subl	$8, %esp
	.cfi_def_cfa_offset 248
	pushl	$.LC42
	.cfi_def_cfa_offset 252
	pushl	%esi
	.cfi_def_cfa_offset 256
	call	strcasecmp
.LVL204:
	addl	$16, %esp
	.cfi_def_cfa_offset 240
	testl	%eax, %eax
	je	.L545
	.loc 1 1096 0
	subl	$8, %esp
	.cfi_def_cfa_offset 248
	pushl	$.LC43
	.cfi_def_cfa_offset 252
	pushl	%esi
	.cfi_def_cfa_offset 256
	call	strcasecmp
.LVL205:
	addl	$16, %esp
	.cfi_def_cfa_offset 240
	testl	%eax, %eax
	je	.L546
	.loc 1 1101 0
	subl	$8, %esp
	.cfi_def_cfa_offset 248
	pushl	$.LC44
	.cfi_def_cfa_offset 252
	pushl	%esi
	.cfi_def_cfa_offset 256
	call	strcasecmp
.LVL206:
	addl	$16, %esp
	.cfi_def_cfa_offset 240
	testl	%eax, %eax
	je	.L547
	.loc 1 1106 0
	subl	$8, %esp
	.cfi_def_cfa_offset 248
	pushl	$.LC45
	.cfi_def_cfa_offset 252
	pushl	%esi
	.cfi_def_cfa_offset 256
	call	strcasecmp
.LVL207:
	addl	$16, %esp
	.cfi_def_cfa_offset 240
	testl	%eax, %eax
	je	.L548
	.loc 1 1111 0
	subl	$8, %esp
	.cfi_def_cfa_offset 248
	pushl	$.LC46
	.cfi_def_cfa_offset 252
	pushl	%esi
	.cfi_def_cfa_offset 256
	call	strcasecmp
.LVL208:
	addl	$16, %esp
	.cfi_def_cfa_offset 240
	testl	%eax, %eax
	je	.L549
	.loc 1 1116 0
	subl	$8, %esp
	.cfi_def_cfa_offset 248
	pushl	$.LC47
	.cfi_def_cfa_offset 252
	pushl	%esi
	.cfi_def_cfa_offset 256
	call	strcasecmp
.LVL209:
	addl	$16, %esp
	.cfi_def_cfa_offset 240
	testl	%eax, %eax
	je	.L550
	.loc 1 1121 0
	subl	$8, %esp
	.cfi_def_cfa_offset 248
	pushl	$.LC48
	.cfi_def_cfa_offset 252
	pushl	%esi
	.cfi_def_cfa_offset 256
	call	strcasecmp
.LVL210:
	addl	$16, %esp
	.cfi_def_cfa_offset 240
	testl	%eax, %eax
	je	.L551
	.loc 1 1126 0
	subl	$8, %esp
	.cfi_def_cfa_offset 248
	pushl	$.LC49
	.cfi_def_cfa_offset 252
	pushl	%esi
	.cfi_def_cfa_offset 256
	call	strcasecmp
.LVL211:
	addl	$16, %esp
	.cfi_def_cfa_offset 240
	testl	%eax, %eax
	je	.L552
	.loc 1 1131 0
	subl	$8, %esp
	.cfi_def_cfa_offset 248
	pushl	$.LC50
	.cfi_def_cfa_offset 252
	pushl	%esi
	.cfi_def_cfa_offset 256
	call	strcasecmp
.LVL212:
	addl	$16, %esp
	.cfi_def_cfa_offset 240
	testl	%eax, %eax
	je	.L553
	.loc 1 1136 0
	subl	$8, %esp
	.cfi_def_cfa_offset 248
	pushl	$.LC51
	.cfi_def_cfa_offset 252
	pushl	%esi
	.cfi_def_cfa_offset 256
	call	strcasecmp
.LVL213:
	addl	$16, %esp
	.cfi_def_cfa_offset 240
	testl	%eax, %eax
	je	.L554
	.loc 1 1141 0
	subl	$8, %esp
	.cfi_def_cfa_offset 248
	pushl	$.LC52
	.cfi_def_cfa_offset 252
	pushl	%esi
	.cfi_def_cfa_offset 256
	call	strcasecmp
.LVL214:
	addl	$16, %esp
	.cfi_def_cfa_offset 240
	testl	%eax, %eax
	je	.L555
	.loc 1 1146 0
	subl	$8, %esp
	.cfi_def_cfa_offset 248
	pushl	$.LC53
	.cfi_def_cfa_offset 252
	pushl	%esi
	.cfi_def_cfa_offset 256
	call	strcasecmp
.LVL215:
	addl	$16, %esp
	.cfi_def_cfa_offset 240
	testl	%eax, %eax
	je	.L556
	.loc 1 1151 0
	subl	$8, %esp
	.cfi_def_cfa_offset 248
	pushl	$.LC54
	.cfi_def_cfa_offset 252
	pushl	%esi
	.cfi_def_cfa_offset 256
	call	strcasecmp
.LVL216:
	addl	$16, %esp
	.cfi_def_cfa_offset 240
	testl	%eax, %eax
	je	.L557
	.loc 1 1156 0
	subl	$8, %esp
	.cfi_def_cfa_offset 248
	pushl	$.LC55
	.cfi_def_cfa_offset 252
	pushl	%esi
	.cfi_def_cfa_offset 256
	call	strcasecmp
.LVL217:
	addl	$16, %esp
	.cfi_def_cfa_offset 240
	testl	%eax, %eax
	je	.L558
	.loc 1 1161 0
	subl	$8, %esp
	.cfi_def_cfa_offset 248
	pushl	$.LC56
	.cfi_def_cfa_offset 252
	pushl	%esi
	.cfi_def_cfa_offset 256
	call	strcasecmp
.LVL218:
	addl	$16, %esp
	.cfi_def_cfa_offset 240
	testl	%eax, %eax
	je	.L559
	.loc 1 1166 0
	subl	$8, %esp
	.cfi_def_cfa_offset 248
	pushl	$.LC57
	.cfi_def_cfa_offset 252
	pushl	%esi
	.cfi_def_cfa_offset 256
	call	strcasecmp
.LVL219:
	addl	$16, %esp
	.cfi_def_cfa_offset 240
	testl	%eax, %eax
	je	.L560
	.loc 1 1171 0
	subl	$8, %esp
	.cfi_def_cfa_offset 248
	pushl	$.LC58
	.cfi_def_cfa_offset 252
	pushl	%esi
	.cfi_def_cfa_offset 256
	call	strcasecmp
.LVL220:
	addl	$16, %esp
	.cfi_def_cfa_offset 240
	testl	%eax, %eax
	jne	.L462
	.loc 1 1173 0
	movl	%ebp, %edx
	movl	%esi, %eax
	call	value_required
.LVL221:
	.loc 1 1174 0
	subl	$12, %esp
	.cfi_def_cfa_offset 252
	pushl	%ebp
	.cfi_def_cfa_offset 256
	call	atoi
.LVL222:
	addl	$16, %esp
	.cfi_def_cfa_offset 240
	movl	%eax, max_age
	.p2align 4,,10
	.p2align 3
.L436:
.LVL223:
	.loc 1 1185 0
	subl	$8, %esp
	.cfi_remember_state
	.cfi_def_cfa_offset 248
	pushl	$.LC31
	.cfi_def_cfa_offset 252
	pushl	%ebx
	.cfi_def_cfa_offset 256
	call	strspn
.LVL224:
	leal	(%ebx,%eax), %esi
.LVL225:
	addl	$16, %esp
	.cfi_def_cfa_offset 240
	.loc 1 1026 0
	movl	%esi, %eax
	shrl	$3, %eax
	movzbl	536870912(%eax), %eax
	testb	%al, %al
	je	.L425
	movl	%esi, %edx
	andl	$7, %edx
	cmpb	%dl, %al
	jg	.L425
	subl	$12, %esp
	.cfi_def_cfa_offset 252
	pushl	%esi
	.cfi_def_cfa_offset 256
	call	__asan_report_load1
.LVL226:
	.p2align 4,,10
	.p2align 3
.L539:
	.cfi_restore_state
	.loc 1 1041 0
	movl	%ebp, %edx
	movl	%esi, %eax
	call	no_value_required
.LVL227:
	.loc 1 1042 0
	movl	$1, debug
	jmp	.L436
.L540:
	.loc 1 1046 0
	movl	%ebp, %edx
	movl	%esi, %eax
	call	value_required
.LVL228:
	.loc 1 1047 0
	subl	$12, %esp
	.cfi_def_cfa_offset 252
	pushl	%ebp
	.cfi_def_cfa_offset 256
	call	atoi
.LVL229:
	addl	$16, %esp
	.cfi_def_cfa_offset 240
	movw	%ax, port
	jmp	.L436
.LVL230:
.L469:
	xorl	%ebp, %ebp
	jmp	.L433
.LVL231:
.L541:
	.loc 1 1051 0
	movl	%ebp, %edx
	movl	%esi, %eax
	call	value_required
.LVL232:
	.loc 1 1052 0
	movl	%ebp, %eax
	call	e_strdup
.LVL233:
	movl	%eax, dir
	jmp	.L436
.L542:
	.loc 1 1056 0
	movl	%ebp, %edx
	movl	%esi, %eax
	call	no_value_required
.LVL234:
	.loc 1 1057 0
	movl	$1, do_chroot
	.loc 1 1058 0
	movl	$1, no_symlink_check
	jmp	.L436
.LVL235:
.L468:
	.loc 1 1031 0
	movl	%eax, %ebx
	jmp	.L428
.LVL236:
.L543:
	.loc 1 1062 0
	movl	%ebp, %edx
	movl	%esi, %eax
	call	no_value_required
.LVL237:
	.loc 1 1063 0
	movl	$0, do_chroot
	.loc 1 1064 0
	movl	$0, no_symlink_check
	jmp	.L436
.L529:
	.loc 1 1083 0
	movl	%ebp, %edx
	movl	%esi, %eax
	call	no_value_required
.LVL238:
	.loc 1 1084 0
	movl	$0, no_symlink_check
	jmp	.L436
.L544:
	.loc 1 1068 0
	movl	%ebp, %edx
	movl	%esi, %eax
	call	value_required
.LVL239:
	.loc 1 1069 0
	movl	%ebp, %eax
	call	e_strdup
.LVL240:
	movl	%eax, data_dir
	jmp	.L436
.L530:
	.loc 1 1088 0
	movl	%ebp, %edx
	movl	%esi, %eax
	call	no_value_required
.LVL241:
	.loc 1 1089 0
	movl	$1, no_symlink_check
	jmp	.L436
.L545:
	.loc 1 1093 0
	movl	%ebp, %edx
	movl	%esi, %eax
	call	value_required
.LVL242:
	.loc 1 1094 0
	movl	%ebp, %eax
	call	e_strdup
.LVL243:
	movl	%eax, user
	jmp	.L436
.L547:
	.loc 1 1103 0
	movl	%ebp, %edx
	movl	%esi, %eax
	call	value_required
.LVL244:
	.loc 1 1104 0
	subl	$12, %esp
	.cfi_def_cfa_offset 252
	pushl	%ebp
	.cfi_def_cfa_offset 256
	call	atoi
.LVL245:
	addl	$16, %esp
	.cfi_def_cfa_offset 240
	movl	%eax, cgi_limit
	jmp	.L436
.L546:
	.loc 1 1098 0
	movl	%ebp, %edx
	movl	%esi, %eax
	call	value_required
.LVL246:
	.loc 1 1099 0
	movl	%ebp, %eax
	call	e_strdup
.LVL247:
	movl	%eax, cgi_pattern
	jmp	.L436
.L549:
	.loc 1 1113 0
	movl	%ebp, %edx
	movl	%esi, %eax
	call	no_value_required
.LVL248:
	.loc 1 1114 0
	movl	$1, no_empty_referers
	jmp	.L436
.L548:
	.loc 1 1108 0
	movl	%ebp, %edx
	movl	%esi, %eax
	call	value_required
.LVL249:
	.loc 1 1109 0
	movl	%ebp, %eax
	call	e_strdup
.LVL250:
	movl	%eax, url_pattern
	jmp	.L436
.L550:
	.loc 1 1118 0
	movl	%ebp, %edx
	movl	%esi, %eax
	call	value_required
.LVL251:
	.loc 1 1119 0
	movl	%ebp, %eax
	call	e_strdup
.LVL252:
	movl	%eax, local_pattern
	jmp	.L436
.LVL253:
.L532:
	.loc 1 1189 0
	subl	$12, %esp
	.cfi_def_cfa_offset 252
	pushl	24(%esp)
	.cfi_def_cfa_offset 256
	call	fclose
.LVL254:
	addl	$16, %esp
	.cfi_def_cfa_offset 240
	.loc 1 1000 0
	leal	16(%esp), %eax
	cmpl	4(%esp), %eax
	jne	.L561
	movl	$0, 536870912(%edi)
	movl	$0, 536870928(%edi)
	movl	$0, 536870932(%edi)
	.loc 1 1190 0
	addl	$220, %esp
	.cfi_remember_state
	.cfi_def_cfa_offset 20
	popl	%ebx
	.cfi_restore 3
	.cfi_def_cfa_offset 16
	popl	%esi
	.cfi_restore 6
	.cfi_def_cfa_offset 12
	popl	%edi
	.cfi_restore 7
	.cfi_def_cfa_offset 8
	popl	%ebp
	.cfi_restore 5
	.cfi_def_cfa_offset 4
	ret
.LVL255:
.L534:
	.cfi_restore_state
	.loc 1 1026 0
	subl	$12, %esp
	.cfi_remember_state
	.cfi_def_cfa_offset 252
	pushl	%esi
	.cfi_def_cfa_offset 256
	call	__asan_report_load1
.LVL256:
.L553:
	.cfi_restore_state
	.loc 1 1133 0
	movl	%ebp, %edx
	movl	%esi, %eax
	call	value_required
.LVL257:
	.loc 1 1134 0
	movl	%ebp, %eax
	call	e_strdup
.LVL258:
	movl	%eax, logfile
	jmp	.L436
.L552:
	.loc 1 1128 0
	movl	%ebp, %edx
	movl	%esi, %eax
	call	value_required
.LVL259:
	.loc 1 1129 0
	movl	%ebp, %eax
	call	e_strdup
.LVL260:
	movl	%eax, hostname
	jmp	.L436
.LVL261:
.L535:
	.loc 1 1031 0
	subl	$12, %esp
	.cfi_remember_state
	.cfi_def_cfa_offset 252
	pushl	%eax
	.cfi_def_cfa_offset 256
	call	__asan_report_load1
.LVL262:
.L561:
	.cfi_restore_state
	.loc 1 1000 0
	movl	4(%esp), %eax
	movl	$1172321806, (%eax)
	movl	$-168430091, 536870912(%edi)
	movl	$-168430091, 536870916(%edi)
	movl	$-168430091, 536870920(%edi)
	movl	$-168430091, 536870924(%edi)
	movl	$-168430091, 536870928(%edi)
	movl	$-168430091, 536870932(%edi)
	.loc 1 1190 0
	addl	$220, %esp
	.cfi_remember_state
	.cfi_def_cfa_offset 20
	popl	%ebx
	.cfi_restore 3
	.cfi_def_cfa_offset 16
	popl	%esi
	.cfi_restore 6
	.cfi_def_cfa_offset 12
	popl	%edi
	.cfi_restore 7
	.cfi_def_cfa_offset 8
	popl	%ebp
	.cfi_restore 5
	.cfi_def_cfa_offset 4
	ret
.LVL263:
.L551:
	.cfi_restore_state
	.loc 1 1123 0
	movl	%ebp, %edx
	movl	%esi, %eax
	call	value_required
.LVL264:
	.loc 1 1124 0
	movl	%ebp, %eax
	call	e_strdup
.LVL265:
	movl	%eax, throttlefile
	jmp	.L436
.LVL266:
.L526:
	.loc 1 1011 0
	subl	$12, %esp
	.cfi_remember_state
	.cfi_def_cfa_offset 252
	pushl	%ebx
	.cfi_def_cfa_offset 256
	call	perror
.LVL267:
	.loc 1 1012 0
	call	__asan_handle_no_return
.LVL268:
	movl	$1, (%esp)
	call	exit
.LVL269:
.L531:
	.cfi_restore_state
	.loc 1 1000 0
	subl	$8, %esp
	.cfi_def_cfa_offset 248
	pushl	12(%esp)
	.cfi_def_cfa_offset 252
	pushl	$192
	.cfi_def_cfa_offset 256
	call	__asan_stack_malloc_2
.LVL270:
	addl	$16, %esp
	.cfi_def_cfa_offset 240
	movl	%eax, 4(%esp)
	jmp	.L418
.LVL271:
.L533:
	.loc 1 1019 0
	subl	$12, %esp
	.cfi_remember_state
	.cfi_def_cfa_offset 252
	pushl	%eax
	.cfi_def_cfa_offset 256
	call	__asan_report_store1
.LVL272:
.L536:
	.cfi_restore_state
	.loc 1 1032 0
	subl	$12, %esp
	.cfi_remember_state
	.cfi_def_cfa_offset 252
	pushl	%eax
	.cfi_def_cfa_offset 256
	call	__asan_report_store1
.LVL273:
.L537:
	.cfi_restore_state
	.loc 1 1031 0
	subl	$12, %esp
	.cfi_remember_state
	.cfi_def_cfa_offset 252
	pushl	%ebx
	.cfi_def_cfa_offset 256
	call	__asan_report_load1
.LVL274:
.L538:
	.cfi_restore_state
	.loc 1 1037 0
	subl	$12, %esp
	.cfi_remember_state
	.cfi_def_cfa_offset 252
	pushl	%eax
	.cfi_def_cfa_offset 256
	call	__asan_report_store1
.LVL275:
.L462:
	.cfi_restore_state
	.loc 1 1178 0
	movl	$stderr, %eax
	movl	argv0, %ecx
	movl	%eax, %edx
	shrl	$3, %edx
	movzbl	536870912(%edx), %edx
	testb	%dl, %dl
	je	.L463
	andl	$7, %eax
	addl	$3, %eax
	cmpb	%dl, %al
	jge	.L562
.L463:
	pushl	%esi
	.cfi_remember_state
	.cfi_def_cfa_offset 244
	pushl	%ecx
	.cfi_def_cfa_offset 248
	pushl	$.LC59
	.cfi_def_cfa_offset 252
	pushl	stderr
	.cfi_def_cfa_offset 256
	call	fprintf
.LVL276:
	.loc 1 1180 0
	call	__asan_handle_no_return
.LVL277:
	movl	$1, (%esp)
	call	exit
.LVL278:
.L557:
	.cfi_restore_state
	.loc 1 1153 0
	movl	%ebp, %edx
	movl	%esi, %eax
	call	no_value_required
.LVL279:
	.loc 1 1154 0
	movl	$0, do_global_passwd
	jmp	.L436
.L556:
	.loc 1 1148 0
	movl	%ebp, %edx
	movl	%esi, %eax
	call	no_value_required
.LVL280:
	.loc 1 1149 0
	movl	$1, do_global_passwd
	jmp	.L436
.L555:
	.loc 1 1143 0
	movl	%ebp, %edx
	movl	%esi, %eax
	call	no_value_required
.LVL281:
	.loc 1 1144 0
	movl	$0, do_vhost
	jmp	.L436
.L554:
	.loc 1 1138 0
	movl	%ebp, %edx
	movl	%esi, %eax
	call	no_value_required
.LVL282:
	.loc 1 1139 0
	movl	$1, do_vhost
	jmp	.L436
.L559:
	.loc 1 1163 0
	movl	%ebp, %edx
	movl	%esi, %eax
	call	value_required
.LVL283:
	.loc 1 1164 0
	movl	%ebp, %eax
	call	e_strdup
.LVL284:
	movl	%eax, charset
	jmp	.L436
.L558:
	.loc 1 1158 0
	movl	%ebp, %edx
	movl	%esi, %eax
	call	value_required
.LVL285:
	.loc 1 1159 0
	movl	%ebp, %eax
	call	e_strdup
.LVL286:
	movl	%eax, pidfile
	jmp	.L436
.L560:
	.loc 1 1168 0
	movl	%ebp, %edx
	movl	%esi, %eax
	call	value_required
.LVL287:
	.loc 1 1169 0
	movl	%ebp, %eax
	call	e_strdup
.LVL288:
	movl	%eax, p3p
	jmp	.L436
.L562:
	.loc 1 1178 0
	subl	$12, %esp
	.cfi_def_cfa_offset 252
	pushl	$stderr
	.cfi_def_cfa_offset 256
	call	__asan_report_load4
.LVL289:
	.cfi_endproc
.LFE10:
	.size	read_config, .-read_config
	.section	.text.unlikely
.LCOLDE60:
	.text
.LHOTE60:
	.section	.rodata
	.align 32
.LC61:
	.string	"nobody"
	.zero	57
	.align 32
.LC62:
	.string	"iso-8859-1"
	.zero	53
	.align 32
.LC63:
	.string	""
	.zero	63
	.align 32
.LC64:
	.string	"-V"
	.zero	61
	.align 32
.LC65:
	.string	"thttpd/2.27.0 Oct 3, 2014"
	.zero	38
	.align 32
.LC66:
	.string	"-C"
	.zero	61
	.align 32
.LC67:
	.string	"-p"
	.zero	61
	.align 32
.LC68:
	.string	"-d"
	.zero	61
	.align 32
.LC69:
	.string	"-r"
	.zero	61
	.align 32
.LC70:
	.string	"-nor"
	.zero	59
	.align 32
.LC71:
	.string	"-dd"
	.zero	60
	.align 32
.LC72:
	.string	"-s"
	.zero	61
	.align 32
.LC73:
	.string	"-nos"
	.zero	59
	.align 32
.LC74:
	.string	"-u"
	.zero	61
	.align 32
.LC75:
	.string	"-c"
	.zero	61
	.align 32
.LC76:
	.string	"-t"
	.zero	61
	.align 32
.LC77:
	.string	"-h"
	.zero	61
	.align 32
.LC78:
	.string	"-l"
	.zero	61
	.align 32
.LC79:
	.string	"-v"
	.zero	61
	.align 32
.LC80:
	.string	"-nov"
	.zero	59
	.align 32
.LC81:
	.string	"-g"
	.zero	61
	.align 32
.LC82:
	.string	"-nog"
	.zero	59
	.align 32
.LC83:
	.string	"-i"
	.zero	61
	.align 32
.LC84:
	.string	"-T"
	.zero	61
	.align 32
.LC85:
	.string	"-P"
	.zero	61
	.align 32
.LC86:
	.string	"-M"
	.zero	61
	.align 32
.LC87:
	.string	"-D"
	.zero	61
	.section	.text.unlikely
.LCOLDB88:
	.text
.LHOTB88:
	.p2align 4,,15
	.type	parse_args, @function
parse_args:
.LASANPC8:
.LFB8:
	.loc 1 837 0
	.cfi_startproc
.LVL290:
	pushl	%ebp
	.cfi_def_cfa_offset 8
	.cfi_offset 5, -8
	pushl	%edi
	.cfi_def_cfa_offset 12
	.cfi_offset 7, -12
	.loc 1 841 0
	movl	$80, %ecx
	.loc 1 837 0
	pushl	%esi
	.cfi_def_cfa_offset 16
	.cfi_offset 6, -16
	pushl	%ebx
	.cfi_def_cfa_offset 20
	.cfi_offset 3, -20
	subl	$28, %esp
	.cfi_def_cfa_offset 48
	.loc 1 883 0
	cmpl	$1, %eax
	.loc 1 840 0
	movl	$0, debug
	.loc 1 837 0
	movl	%eax, 4(%esp)
	movl	%edx, 8(%esp)
	.loc 1 841 0
	movw	%cx, port
	.loc 1 842 0
	movl	$0, dir
	.loc 1 843 0
	movl	$0, data_dir
	.loc 1 847 0
	movl	$0, do_chroot
	.loc 1 849 0
	movl	$0, no_log
	.loc 1 850 0
	movl	$0, no_symlink_check
	.loc 1 854 0
	movl	$0, do_vhost
	.loc 1 859 0
	movl	$0, do_global_passwd
	.loc 1 864 0
	movl	$0, cgi_pattern
	.loc 1 869 0
	movl	$0, cgi_limit
	.loc 1 871 0
	movl	$0, url_pattern
	.loc 1 872 0
	movl	$0, no_empty_referers
	.loc 1 873 0
	movl	$0, local_pattern
	.loc 1 874 0
	movl	$0, throttlefile
	.loc 1 875 0
	movl	$0, hostname
	.loc 1 876 0
	movl	$0, logfile
	.loc 1 877 0
	movl	$0, pidfile
	.loc 1 878 0
	movl	$.LC61, user
	.loc 1 879 0
	movl	$.LC62, charset
	.loc 1 880 0
	movl	$.LC63, p3p
	.loc 1 881 0
	movl	$-1, max_age
.LVL291:
	.loc 1 883 0
	jle	.L611
	movl	%edx, %eax
.LVL292:
	addl	$4, %eax
	movl	%eax, %edx
.LVL293:
	shrl	$3, %edx
	movzbl	536870912(%edx), %edx
	testb	%dl, %dl
	je	.L565
	movl	%eax, %ecx
	andl	$7, %ecx
	addl	$3, %ecx
	cmpb	%dl, %cl
	jge	.L727
.L565:
	movl	8(%esp), %eax
	movl	4(%eax), %ebx
	movl	%ebx, %eax
	shrl	$3, %eax
	movzbl	536870912(%eax), %eax
	testb	%al, %al
	je	.L566
	movl	%ebx, %edx
	andl	$7, %edx
	cmpb	%dl, %al
	jle	.L728
.L566:
	cmpb	$45, (%ebx)
	jne	.L607
	movl	$1, %ebp
	.loc 1 885 0
	movl	$3, %edx
	jmp	.L610
.LVL294:
	.p2align 4,,10
	.p2align 3
.L733:
	.loc 1 890 0 discriminator 1
	leal	1(%ebp), %esi
	cmpl	%esi, 4(%esp)
	jg	.L729
.L570:
	.loc 1 905 0
	movl	$.LC69, %edi
	movl	%ebx, %esi
	movl	%edx, %ecx
	repz; cmpsb
	jne	.L576
	.loc 1 907 0
	movl	$1, do_chroot
	.loc 1 908 0
	movl	$1, no_symlink_check
.L572:
	.loc 1 981 0
	addl	$1, %ebp
.LVL295:
	.loc 1 883 0
	cmpl	%ebp, 4(%esp)
	jle	.L564
.L735:
	.loc 1 883 0 is_stmt 0 discriminator 1
	movl	8(%esp), %eax
	leal	(%eax,%ebp,4), %eax
	movl	%eax, %ecx
	shrl	$3, %ecx
	movzbl	536870912(%ecx), %ecx
	testb	%cl, %cl
	je	.L608
	movl	%eax, %ebx
	andl	$7, %ebx
	addl	$3, %ebx
	cmpb	%cl, %bl
	jge	.L730
.L608:
	movl	(%eax), %ebx
	movl	%ebx, %eax
	shrl	$3, %eax
	movzbl	536870912(%eax), %eax
	testb	%al, %al
	je	.L609
	movl	%ebx, %ecx
	andl	$7, %ecx
	cmpb	%cl, %al
	jle	.L731
.L609:
	cmpb	$45, (%ebx)
	jne	.L607
.LVL296:
.L610:
	.loc 1 885 0 is_stmt 1
	movl	%ebx, %esi
	movl	$.LC64, %edi
	movl	%edx, %ecx
	repz; cmpsb
	je	.L732
	.loc 1 890 0
	movl	$.LC66, %edi
	movl	%ebx, %esi
	movl	%edx, %ecx
	repz; cmpsb
	je	.L733
	.loc 1 895 0
	movl	$.LC67, %edi
	movl	%ebx, %esi
	movl	%edx, %ecx
	repz; cmpsb
	jne	.L573
	.loc 1 895 0 is_stmt 0 discriminator 1
	leal	1(%ebp), %esi
	cmpl	%esi, 4(%esp)
	jle	.L570
.LVL297:
	.loc 1 898 0 is_stmt 1
	movl	8(%esp), %eax
	leal	(%eax,%esi,4), %eax
	movl	%eax, %ecx
	shrl	$3, %ecx
	movzbl	536870912(%ecx), %ecx
	testb	%cl, %cl
	je	.L574
	movl	%eax, %ebx
	andl	$7, %ebx
	addl	$3, %ebx
	cmpb	%cl, %bl
	jge	.L734
.L574:
	movl	%edx, 12(%esp)
	subl	$12, %esp
	.cfi_def_cfa_offset 60
	pushl	(%eax)
	.cfi_def_cfa_offset 64
	movl	%esi, %ebp
	call	atoi
.LVL298:
	addl	$16, %esp
	.cfi_def_cfa_offset 48
	.loc 1 981 0
	addl	$1, %ebp
	.loc 1 898 0
	movw	%ax, port
	.loc 1 883 0
	cmpl	%ebp, 4(%esp)
	.loc 1 898 0
	movl	12(%esp), %edx
.LVL299:
	.loc 1 883 0
	jg	.L735
.LVL300:
.L564:
	.loc 1 983 0
	cmpl	4(%esp), %ebp
	jne	.L607
	.loc 1 985 0
	addl	$28, %esp
	.cfi_remember_state
	.cfi_def_cfa_offset 20
	popl	%ebx
	.cfi_restore 3
	.cfi_def_cfa_offset 16
	popl	%esi
	.cfi_restore 6
	.cfi_def_cfa_offset 12
	popl	%edi
	.cfi_restore 7
	.cfi_def_cfa_offset 8
	popl	%ebp
	.cfi_restore 5
	.cfi_def_cfa_offset 4
	ret
.LVL301:
	.p2align 4,,10
	.p2align 3
.L573:
	.cfi_restore_state
	.loc 1 900 0
	movl	$.LC68, %edi
	movl	%ebx, %esi
	movl	%edx, %ecx
	repz; cmpsb
	jne	.L570
	.loc 1 900 0 is_stmt 0 discriminator 1
	leal	1(%ebp), %eax
	cmpl	%eax, 4(%esp)
	jle	.L570
.LVL302:
	.loc 1 903 0 is_stmt 1
	movl	8(%esp), %edi
	leal	(%edi,%eax,4), %edi
	movl	%edi, %ebx
	shrl	$3, %ebx
	movzbl	536870912(%ebx), %ebx
	testb	%bl, %bl
	je	.L575
	movl	%edi, %esi
	andl	$7, %esi
	addl	$3, %esi
	movl	%esi, %ecx
	cmpb	%bl, %cl
	jge	.L736
.L575:
	movl	(%edi), %ecx
	movl	%eax, %ebp
	movl	%ecx, dir
	jmp	.L572
.LVL303:
	.p2align 4,,10
	.p2align 3
.L576:
	.loc 1 910 0
	movl	$.LC70, %edi
	movl	%ebx, %esi
	movl	$5, %ecx
	repz; cmpsb
	jne	.L577
	.loc 1 912 0
	movl	$0, do_chroot
	.loc 1 913 0
	movl	$0, no_symlink_check
	jmp	.L572
	.p2align 4,,10
	.p2align 3
.L729:
.LVL304:
	.loc 1 893 0
	movl	8(%esp), %eax
	leal	(%eax,%esi,4), %eax
	movl	%eax, %ecx
	shrl	$3, %ecx
	movzbl	536870912(%ecx), %ecx
	testb	%cl, %cl
	je	.L571
	movl	%eax, %ebx
	andl	$7, %ebx
	addl	$3, %ebx
	cmpb	%cl, %bl
	jge	.L737
.L571:
	movl	(%eax), %eax
	movl	%edx, 12(%esp)
	movl	%esi, %ebp
	call	read_config
.LVL305:
	movl	12(%esp), %edx
	jmp	.L572
.LVL306:
	.p2align 4,,10
	.p2align 3
.L577:
	.loc 1 915 0
	movl	$.LC71, %edi
	movl	$4, %ecx
	movl	%ebx, %esi
	repz; cmpsb
	jne	.L578
	.loc 1 915 0 is_stmt 0 discriminator 1
	leal	1(%ebp), %eax
	cmpl	%eax, 4(%esp)
	jle	.L578
.LVL307:
	.loc 1 918 0 is_stmt 1
	movl	8(%esp), %edi
	leal	(%edi,%eax,4), %edi
	movl	%edi, %ebx
	shrl	$3, %ebx
	movzbl	536870912(%ebx), %ebx
	testb	%bl, %bl
	je	.L579
	movl	%edi, %esi
	andl	$7, %esi
	addl	$3, %esi
	movl	%esi, %ecx
	cmpb	%bl, %cl
	jge	.L738
.L579:
	movl	(%edi), %ecx
	movl	%eax, %ebp
	movl	%ecx, data_dir
	jmp	.L572
.LVL308:
	.p2align 4,,10
	.p2align 3
.L578:
	.loc 1 920 0
	movl	$.LC72, %edi
	movl	%ebx, %esi
	movl	%edx, %ecx
	repz; cmpsb
	jne	.L580
	.loc 1 921 0
	movl	$0, no_symlink_check
	jmp	.L572
	.p2align 4,,10
	.p2align 3
.L580:
	.loc 1 922 0
	movl	$.LC73, %edi
	movl	%ebx, %esi
	movl	$5, %ecx
	repz; cmpsb
	je	.L739
	movl	%edx, 12(%esp)
	.loc 1 924 0
	pushl	%eax
	.cfi_def_cfa_offset 52
	pushl	%eax
	.cfi_def_cfa_offset 56
	pushl	$.LC74
	.cfi_def_cfa_offset 60
	pushl	%ebx
	.cfi_def_cfa_offset 64
	call	strcmp
.LVL309:
	addl	$16, %esp
	.cfi_def_cfa_offset 48
	testl	%eax, %eax
	movl	12(%esp), %edx
	jne	.L582
	.loc 1 924 0 is_stmt 0 discriminator 1
	leal	1(%ebp), %eax
	cmpl	%eax, 4(%esp)
	jle	.L583
.LVL310:
	.loc 1 927 0 is_stmt 1
	movl	8(%esp), %edi
	leal	(%edi,%eax,4), %edi
	movl	%edi, %ebx
	shrl	$3, %ebx
	movzbl	536870912(%ebx), %ebx
	testb	%bl, %bl
	je	.L584
	movl	%edi, %esi
	andl	$7, %esi
	addl	$3, %esi
	movl	%esi, %ecx
	cmpb	%bl, %cl
	jge	.L740
.L584:
	movl	(%edi), %ecx
	movl	%eax, %ebp
	movl	%ecx, user
	jmp	.L572
.LVL311:
.L739:
	.loc 1 923 0
	movl	$1, no_symlink_check
	jmp	.L572
.L582:
	movl	%edx, 12(%esp)
	.loc 1 929 0
	pushl	%eax
	.cfi_remember_state
	.cfi_def_cfa_offset 52
	pushl	%eax
	.cfi_def_cfa_offset 56
	pushl	$.LC75
	.cfi_def_cfa_offset 60
	pushl	%ebx
	.cfi_def_cfa_offset 64
	call	strcmp
.LVL312:
	addl	$16, %esp
	.cfi_def_cfa_offset 48
	testl	%eax, %eax
	movl	12(%esp), %edx
	jne	.L585
	.loc 1 929 0 is_stmt 0 discriminator 1
	leal	1(%ebp), %eax
	cmpl	%eax, 4(%esp)
	jle	.L586
.LVL313:
	.loc 1 932 0 is_stmt 1
	movl	8(%esp), %edi
	leal	(%edi,%eax,4), %edi
	movl	%edi, %ebx
	shrl	$3, %ebx
	movzbl	536870912(%ebx), %ebx
	testb	%bl, %bl
	je	.L587
	movl	%edi, %esi
	andl	$7, %esi
	addl	$3, %esi
	movl	%esi, %ecx
	cmpb	%bl, %cl
	jl	.L587
	subl	$12, %esp
	.cfi_def_cfa_offset 60
	pushl	%edi
	.cfi_def_cfa_offset 64
	call	__asan_report_load4
.LVL314:
.L585:
	.cfi_restore_state
	movl	%edx, 12(%esp)
	.loc 1 934 0
	pushl	%edi
	.cfi_remember_state
	.cfi_def_cfa_offset 52
	pushl	%edi
	.cfi_def_cfa_offset 56
	pushl	$.LC76
	.cfi_def_cfa_offset 60
	pushl	%ebx
	.cfi_def_cfa_offset 64
	call	strcmp
.LVL315:
	addl	$16, %esp
	.cfi_def_cfa_offset 48
	testl	%eax, %eax
	movl	12(%esp), %edx
	jne	.L588
	.loc 1 934 0 is_stmt 0 discriminator 1
	leal	1(%ebp), %eax
	cmpl	%eax, 4(%esp)
	jle	.L589
.LVL316:
	.loc 1 937 0 is_stmt 1
	movl	8(%esp), %edi
	leal	(%edi,%eax,4), %edi
	movl	%edi, %ebx
	shrl	$3, %ebx
	movzbl	536870912(%ebx), %ebx
	testb	%bl, %bl
	je	.L590
	movl	%edi, %esi
	andl	$7, %esi
	addl	$3, %esi
	movl	%esi, %ecx
	cmpb	%bl, %cl
	jl	.L590
	subl	$12, %esp
	.cfi_def_cfa_offset 60
	pushl	%edi
	.cfi_def_cfa_offset 64
	call	__asan_report_load4
.LVL317:
.L588:
	.cfi_restore_state
	movl	%edx, 12(%esp)
	.loc 1 939 0
	pushl	%esi
	.cfi_remember_state
	.cfi_def_cfa_offset 52
	pushl	%esi
	.cfi_def_cfa_offset 56
	pushl	$.LC77
	.cfi_def_cfa_offset 60
	pushl	%ebx
	.cfi_def_cfa_offset 64
	call	strcmp
.LVL318:
	addl	$16, %esp
	.cfi_def_cfa_offset 48
	testl	%eax, %eax
	movl	12(%esp), %edx
	jne	.L591
	.loc 1 939 0 is_stmt 0 discriminator 1
	leal	1(%ebp), %eax
	cmpl	%eax, 4(%esp)
	jle	.L589
.LVL319:
	.loc 1 942 0 is_stmt 1
	movl	8(%esp), %edi
	leal	(%edi,%eax,4), %edi
	movl	%edi, %ebx
	shrl	$3, %ebx
	movzbl	536870912(%ebx), %ebx
	testb	%bl, %bl
	je	.L592
	movl	%edi, %esi
	andl	$7, %esi
	addl	$3, %esi
	movl	%esi, %ecx
	cmpb	%bl, %cl
	jl	.L592
	subl	$12, %esp
	.cfi_def_cfa_offset 60
	pushl	%edi
	.cfi_def_cfa_offset 64
	call	__asan_report_load4
.LVL320:
.L583:
	.cfi_restore_state
	movl	%edx, 12(%esp)
	.loc 1 934 0
	pushl	%ecx
	.cfi_def_cfa_offset 52
	pushl	%ecx
	.cfi_def_cfa_offset 56
	pushl	$.LC76
	.cfi_def_cfa_offset 60
	pushl	%ebx
	.cfi_def_cfa_offset 64
	call	strcmp
.LVL321:
	addl	$16, %esp
	.cfi_def_cfa_offset 48
	testl	%eax, %eax
	movl	12(%esp), %edx
	jne	.L588
.L591:
	movl	%edx, 12(%esp)
	.loc 1 944 0
	pushl	%ecx
	.cfi_def_cfa_offset 52
	pushl	%ecx
	.cfi_def_cfa_offset 56
	pushl	$.LC78
	.cfi_def_cfa_offset 60
	pushl	%ebx
	.cfi_def_cfa_offset 64
	call	strcmp
.LVL322:
	addl	$16, %esp
	.cfi_def_cfa_offset 48
	testl	%eax, %eax
	movl	12(%esp), %edx
	jne	.L589
	.loc 1 944 0 is_stmt 0 discriminator 1
	leal	1(%ebp), %eax
	cmpl	%eax, 4(%esp)
	jle	.L589
.LVL323:
	.loc 1 947 0 is_stmt 1
	movl	8(%esp), %edi
	leal	(%edi,%eax,4), %edi
	movl	%edi, %ebx
	shrl	$3, %ebx
	movzbl	536870912(%ebx), %esi
	movl	%esi, %ebx
	testb	%bl, %bl
	je	.L593
	movl	%edi, %ebx
	movl	%esi, %ecx
	andl	$7, %ebx
	addl	$3, %ebx
	cmpb	%cl, %bl
	jge	.L741
.L593:
	movl	(%edi), %ecx
	movl	%eax, %ebp
	movl	%ecx, logfile
	jmp	.L572
.L587:
	.loc 1 932 0
	movl	(%edi), %ecx
	movl	%eax, %ebp
	movl	%ecx, cgi_pattern
	jmp	.L572
.LVL324:
.L586:
	movl	%edx, 12(%esp)
	.loc 1 939 0
	pushl	%edx
	.cfi_def_cfa_offset 52
	pushl	%edx
	.cfi_def_cfa_offset 56
	pushl	$.LC77
	.cfi_def_cfa_offset 60
	pushl	%ebx
	.cfi_def_cfa_offset 64
	call	strcmp
.LVL325:
	addl	$16, %esp
	.cfi_def_cfa_offset 48
	testl	%eax, %eax
	movl	12(%esp), %edx
	jne	.L591
.L589:
	movl	%edx, 12(%esp)
	.loc 1 949 0
	pushl	%edx
	.cfi_def_cfa_offset 52
	pushl	%edx
	.cfi_def_cfa_offset 56
	pushl	$.LC79
	.cfi_def_cfa_offset 60
	pushl	%ebx
	.cfi_def_cfa_offset 64
	call	strcmp
.LVL326:
	addl	$16, %esp
	.cfi_def_cfa_offset 48
	testl	%eax, %eax
	movl	12(%esp), %edx
	jne	.L594
	.loc 1 950 0
	movl	$1, do_vhost
	jmp	.L572
.LVL327:
.L590:
	.loc 1 937 0
	movl	(%edi), %ecx
	movl	%eax, %ebp
	movl	%ecx, throttlefile
	jmp	.L572
.L592:
	.loc 1 942 0
	movl	(%edi), %ecx
	movl	%eax, %ebp
	movl	%ecx, hostname
	jmp	.L572
.LVL328:
.L594:
	movl	%edx, 12(%esp)
	.loc 1 951 0
	pushl	%eax
	.cfi_def_cfa_offset 52
	pushl	%eax
	.cfi_def_cfa_offset 56
	pushl	$.LC80
	.cfi_def_cfa_offset 60
	pushl	%ebx
	.cfi_def_cfa_offset 64
	call	strcmp
.LVL329:
	addl	$16, %esp
	.cfi_def_cfa_offset 48
	testl	%eax, %eax
	movl	12(%esp), %edx
	je	.L742
	movl	%edx, 12(%esp)
	.loc 1 953 0
	pushl	%eax
	.cfi_def_cfa_offset 52
	pushl	%eax
	.cfi_def_cfa_offset 56
	pushl	$.LC81
	.cfi_def_cfa_offset 60
	pushl	%ebx
	.cfi_def_cfa_offset 64
	call	strcmp
.LVL330:
	addl	$16, %esp
	.cfi_def_cfa_offset 48
	testl	%eax, %eax
	movl	12(%esp), %edx
	jne	.L596
	.loc 1 954 0
	movl	$1, do_global_passwd
	jmp	.L572
.L742:
	.loc 1 952 0
	movl	$0, do_vhost
	jmp	.L572
.LVL331:
.L611:
	.loc 1 882 0
	movl	$1, %ebp
	jmp	.L564
.LVL332:
.L596:
	movl	%edx, 12(%esp)
	.loc 1 955 0
	pushl	%eax
	.cfi_def_cfa_offset 52
	pushl	%eax
	.cfi_def_cfa_offset 56
	pushl	$.LC82
	.cfi_def_cfa_offset 60
	pushl	%ebx
	.cfi_def_cfa_offset 64
	call	strcmp
.LVL333:
	addl	$16, %esp
	.cfi_def_cfa_offset 48
	testl	%eax, %eax
	movl	12(%esp), %edx
	jne	.L597
	.loc 1 956 0
	movl	$0, do_global_passwd
	jmp	.L572
.L732:
	.loc 1 887 0
	subl	$12, %esp
	.cfi_remember_state
	.cfi_def_cfa_offset 60
	pushl	$.LC65
	.cfi_def_cfa_offset 64
	call	puts
.LVL334:
	.loc 1 888 0
	call	__asan_handle_no_return
.LVL335:
	movl	$0, (%esp)
	call	exit
.LVL336:
.L597:
	.cfi_restore_state
	movl	%edx, 12(%esp)
	.loc 1 957 0
	pushl	%eax
	.cfi_def_cfa_offset 52
	pushl	%eax
	.cfi_def_cfa_offset 56
	pushl	$.LC83
	.cfi_def_cfa_offset 60
	pushl	%ebx
	.cfi_def_cfa_offset 64
	call	strcmp
.LVL337:
	addl	$16, %esp
	.cfi_def_cfa_offset 48
	testl	%eax, %eax
	movl	12(%esp), %edx
	jne	.L598
	.loc 1 957 0 is_stmt 0 discriminator 1
	leal	1(%ebp), %edi
	cmpl	%edi, 4(%esp)
	jle	.L599
.LVL338:
	.loc 1 960 0 is_stmt 1
	movl	8(%esp), %eax
	leal	(%eax,%edi,4), %eax
	movl	%eax, %ebx
	shrl	$3, %ebx
	movzbl	536870912(%ebx), %esi
	movl	%esi, %ebx
	testb	%bl, %bl
	je	.L600
	movl	%eax, %ebx
	movl	%esi, %ecx
	andl	$7, %ebx
	addl	$3, %ebx
	cmpb	%cl, %bl
	jge	.L743
.L600:
	movl	(%eax), %eax
	movl	%edi, %ebp
	movl	%eax, pidfile
	jmp	.L572
.LVL339:
.L598:
	movl	%edx, 12(%esp)
	.loc 1 962 0
	pushl	%eax
	.cfi_def_cfa_offset 52
	pushl	%eax
	.cfi_def_cfa_offset 56
	pushl	$.LC84
	.cfi_def_cfa_offset 60
	pushl	%ebx
	.cfi_def_cfa_offset 64
	call	strcmp
.LVL340:
	addl	$16, %esp
	.cfi_def_cfa_offset 48
	testl	%eax, %eax
	movl	12(%esp), %edx
	jne	.L601
	.loc 1 962 0 is_stmt 0 discriminator 1
	leal	1(%ebp), %edi
	cmpl	%edi, 4(%esp)
	jle	.L602
.LVL341:
	.loc 1 965 0 is_stmt 1
	movl	8(%esp), %eax
	leal	(%eax,%edi,4), %eax
	movl	%eax, %ebx
	shrl	$3, %ebx
	movzbl	536870912(%ebx), %esi
	movl	%esi, %ebx
	testb	%bl, %bl
	je	.L603
	movl	%eax, %ebx
	movl	%esi, %ecx
	andl	$7, %ebx
	addl	$3, %ebx
	cmpb	%cl, %bl
	jge	.L744
.L603:
	movl	(%eax), %eax
	movl	%edi, %ebp
	movl	%eax, charset
	jmp	.L572
.LVL342:
.L601:
	movl	%edx, 12(%esp)
	.loc 1 967 0
	pushl	%eax
	.cfi_def_cfa_offset 52
	pushl	%eax
	.cfi_def_cfa_offset 56
	pushl	$.LC85
	.cfi_def_cfa_offset 60
	pushl	%ebx
	.cfi_def_cfa_offset 64
	call	strcmp
.LVL343:
	addl	$16, %esp
	.cfi_def_cfa_offset 48
	testl	%eax, %eax
	movl	12(%esp), %edx
	jne	.L604
	.loc 1 967 0 is_stmt 0 discriminator 1
	leal	1(%ebp), %edi
	cmpl	%edi, 4(%esp)
	jle	.L602
.LVL344:
	.loc 1 970 0 is_stmt 1
	movl	8(%esp), %eax
	leal	(%eax,%edi,4), %eax
	movl	%eax, %ebx
	shrl	$3, %ebx
	movzbl	536870912(%ebx), %esi
	movl	%esi, %ebx
	testb	%bl, %bl
	je	.L605
	movl	%eax, %ebx
	movl	%esi, %ecx
	andl	$7, %ebx
	addl	$3, %ebx
	cmpb	%cl, %bl
	jge	.L745
.L605:
	movl	(%eax), %eax
	movl	%edi, %ebp
	movl	%eax, p3p
	jmp	.L572
.LVL345:
.L604:
	movl	%edx, 12(%esp)
	.loc 1 972 0
	pushl	%edi
	.cfi_def_cfa_offset 52
	pushl	%edi
	.cfi_def_cfa_offset 56
	pushl	$.LC86
	.cfi_def_cfa_offset 60
	pushl	%ebx
	.cfi_def_cfa_offset 64
	call	strcmp
.LVL346:
	addl	$16, %esp
	.cfi_def_cfa_offset 48
	testl	%eax, %eax
	movl	12(%esp), %edx
	jne	.L602
	.loc 1 972 0 is_stmt 0 discriminator 1
	leal	1(%ebp), %esi
	cmpl	%esi, 4(%esp)
	jle	.L602
.LVL347:
	.loc 1 975 0 is_stmt 1
	movl	8(%esp), %eax
	leal	(%eax,%esi,4), %eax
	movl	%eax, %ecx
	shrl	$3, %ecx
	movzbl	536870912(%ecx), %ebx
	testb	%bl, %bl
	je	.L606
	movl	%eax, %ecx
	andl	$7, %ecx
	addl	$3, %ecx
	cmpb	%bl, %cl
	jge	.L746
.L606:
	movl	%edx, 12(%esp)
	subl	$12, %esp
	.cfi_def_cfa_offset 60
	pushl	(%eax)
	.cfi_def_cfa_offset 64
	movl	%esi, %ebp
	call	atoi
.LVL348:
	addl	$16, %esp
	.cfi_def_cfa_offset 48
	movl	%eax, max_age
	movl	12(%esp), %edx
	jmp	.L572
.LVL349:
.L599:
	movl	%edx, 12(%esp)
	.loc 1 967 0
	pushl	%eax
	.cfi_def_cfa_offset 52
	pushl	%eax
	.cfi_def_cfa_offset 56
	pushl	$.LC85
	.cfi_def_cfa_offset 60
	pushl	%ebx
	.cfi_def_cfa_offset 64
	call	strcmp
.LVL350:
	addl	$16, %esp
	.cfi_def_cfa_offset 48
	testl	%eax, %eax
	movl	12(%esp), %edx
	jne	.L604
.L602:
	movl	%edx, 12(%esp)
	.loc 1 977 0
	pushl	%esi
	.cfi_def_cfa_offset 52
	pushl	%esi
	.cfi_def_cfa_offset 56
	pushl	$.LC87
	.cfi_def_cfa_offset 60
	pushl	%ebx
	.cfi_def_cfa_offset 64
	call	strcmp
.LVL351:
	addl	$16, %esp
	.cfi_def_cfa_offset 48
	testl	%eax, %eax
	jne	.L607
	.loc 1 978 0
	movl	$1, debug
	movl	12(%esp), %edx
	jmp	.L572
.LVL352:
.L745:
	.loc 1 970 0
	subl	$12, %esp
	.cfi_remember_state
	.cfi_def_cfa_offset 60
	pushl	%eax
	.cfi_def_cfa_offset 64
	call	__asan_report_load4
.LVL353:
.L746:
	.cfi_restore_state
	.loc 1 975 0
	subl	$12, %esp
	.cfi_remember_state
	.cfi_def_cfa_offset 60
	pushl	%eax
	.cfi_def_cfa_offset 64
	call	__asan_report_load4
.LVL354:
.L744:
	.cfi_restore_state
	.loc 1 965 0
	subl	$12, %esp
	.cfi_remember_state
	.cfi_def_cfa_offset 60
	pushl	%eax
	.cfi_def_cfa_offset 64
	call	__asan_report_load4
.LVL355:
.L741:
	.cfi_restore_state
	.loc 1 947 0
	subl	$12, %esp
	.cfi_remember_state
	.cfi_def_cfa_offset 60
	pushl	%edi
	.cfi_def_cfa_offset 64
	call	__asan_report_load4
.LVL356:
.L607:
	.cfi_restore_state
	.loc 1 980 0
	call	__asan_handle_no_return
.LVL357:
	call	usage
.LVL358:
.L740:
	.loc 1 927 0
	subl	$12, %esp
	.cfi_remember_state
	.cfi_def_cfa_offset 60
	pushl	%edi
	.cfi_def_cfa_offset 64
	call	__asan_report_load4
.LVL359:
.L743:
	.cfi_restore_state
	.loc 1 960 0
	subl	$12, %esp
	.cfi_remember_state
	.cfi_def_cfa_offset 60
	pushl	%eax
	.cfi_def_cfa_offset 64
	call	__asan_report_load4
.LVL360:
.L731:
	.cfi_restore_state
	.loc 1 883 0
	subl	$12, %esp
	.cfi_remember_state
	.cfi_def_cfa_offset 60
	pushl	%ebx
	.cfi_def_cfa_offset 64
	call	__asan_report_load1
.LVL361:
.L730:
	.cfi_restore_state
	subl	$12, %esp
	.cfi_remember_state
	.cfi_def_cfa_offset 60
	pushl	%eax
	.cfi_def_cfa_offset 64
	call	__asan_report_load4
.LVL362:
.L728:
	.cfi_restore_state
	subl	$12, %esp
	.cfi_remember_state
	.cfi_def_cfa_offset 60
	pushl	%ebx
	.cfi_def_cfa_offset 64
	call	__asan_report_load1
.LVL363:
.L734:
	.cfi_restore_state
	.loc 1 898 0
	subl	$12, %esp
	.cfi_remember_state
	.cfi_def_cfa_offset 60
	pushl	%eax
	.cfi_def_cfa_offset 64
	call	__asan_report_load4
.LVL364:
.L737:
	.cfi_restore_state
	.loc 1 893 0
	subl	$12, %esp
	.cfi_remember_state
	.cfi_def_cfa_offset 60
	pushl	%eax
	.cfi_def_cfa_offset 64
	call	__asan_report_load4
.LVL365:
.L727:
	.cfi_restore_state
	.loc 1 883 0
	subl	$12, %esp
	.cfi_remember_state
	.cfi_def_cfa_offset 60
	pushl	%eax
	.cfi_def_cfa_offset 64
	call	__asan_report_load4
.LVL366:
.L738:
	.cfi_restore_state
	.loc 1 918 0
	subl	$12, %esp
	.cfi_remember_state
	.cfi_def_cfa_offset 60
	pushl	%edi
	.cfi_def_cfa_offset 64
	call	__asan_report_load4
.LVL367:
.L736:
	.cfi_restore_state
	.loc 1 903 0
	subl	$12, %esp
	.cfi_def_cfa_offset 60
	pushl	%edi
	.cfi_def_cfa_offset 64
	call	__asan_report_load4
.LVL368:
	.cfi_endproc
.LFE8:
	.size	parse_args, .-parse_args
	.section	.text.unlikely
.LCOLDE88:
	.text
.LHOTE88:
	.globl	__asan_stack_malloc_8
	.section	.rodata.str1.4,"aMS",@progbits,1
	.align 4
.LC89:
	.string	"5 32 4 9 max_limit 96 4 9 min_limit 160 8 2 tv 224 5000 3 buf 5280 5000 7 pattern "
	.globl	__asan_stack_free_8
	.section	.rodata
	.align 32
.LC90:
	.string	"%.80s - %m"
	.zero	53
	.align 32
.LC91:
	.string	" %4900[^ \t] %ld-%ld"
	.zero	44
	.align 32
.LC92:
	.string	" %4900[^ \t] %ld"
	.zero	48
	.align 32
.LC93:
	.string	"unparsable line in %.80s - %.80s"
	.zero	63
	.align 32
.LC94:
	.string	"%s: unparsable line in %.80s - %.80s\n"
	.zero	58
	.align 32
.LC95:
	.string	"|/"
	.zero	61
	.align 32
.LC96:
	.string	"out of memory allocating a throttletab"
	.zero	57
	.align 32
.LC97:
	.string	"%s: out of memory allocating a throttletab\n"
	.zero	52
	.section	.text.unlikely
.LCOLDB98:
	.text
.LHOTB98:
	.p2align 4,,15
	.type	read_throttlefile, @function
read_throttlefile:
.LASANPC15:
.LFB15:
	.loc 1 1370 0
	.cfi_startproc
.LVL369:
	pushl	%ebp
	.cfi_def_cfa_offset 8
	.cfi_offset 5, -8
	pushl	%edi
	.cfi_def_cfa_offset 12
	.cfi_offset 7, -12
	pushl	%esi
	.cfi_def_cfa_offset 16
	.cfi_offset 6, -16
	pushl	%ebx
	.cfi_def_cfa_offset 20
	.cfi_offset 3, -20
	subl	$10380, %esp
	.cfi_def_cfa_offset 10400
	movl	%eax, 16(%esp)
	leal	32(%esp), %eax
.LVL370:
	movl	%eax, 20(%esp)
	movl	__asan_option_detect_stack_use_after_return, %eax
	testl	%eax, %eax
	jne	.L890
.L747:
	.loc 1 1370 0
	movl	20(%esp), %eax
	.loc 1 1379 0
	subl	$8, %esp
	.cfi_def_cfa_offset 10408
	.loc 1 1370 0
	leal	10336(%eax), %esi
	movl	%esi, 16(%esp)
	movl	$1102416563, (%eax)
.LVL371:
	movl	$.LC89, 4(%eax)
	movl	$.LASANPC15, 8(%eax)
	shrl	$3, %eax
	movl	%eax, 36(%esp)
	movl	$-235802127, 536870912(%eax)
	movl	$-185273340, 536870916(%eax)
	movl	$-218959118, 536870920(%eax)
	movl	$-185273340, 536870924(%eax)
	movl	$-218959118, 536870928(%eax)
	movl	$-185273344, 536870932(%eax)
	movl	$-218959118, 536870936(%eax)
	movl	$-185273344, 536871564(%eax)
	movl	$-218959118, 536871568(%eax)
	movl	$-185273344, 536872196(%eax)
	movl	$-202116109, 536872200(%eax)
	.loc 1 1379 0
	pushl	$.LC30
	.cfi_def_cfa_offset 10412
	pushl	28(%esp)
	.cfi_def_cfa_offset 10416
	call	fopen
.LVL372:
	movl	%eax, 28(%esp)
.LVL373:
	.loc 1 1380 0
	addl	$16, %esp
	.cfi_def_cfa_offset 10400
	testl	%eax, %eax
	je	.L891
	.loc 1 1387 0
	subl	$8, %esp
	.cfi_def_cfa_offset 10408
	pushl	$0
	.cfi_def_cfa_offset 10412
	movl	32(%esp), %esi
	movl	%esi, %eax
.LVL374:
	leal	224(%esi), %edi
	addl	$160, %eax
	pushl	%eax
	.cfi_def_cfa_offset 10416
	call	gettimeofday
.LVL375:
	.loc 1 1416 0
	movl	$stderr, %eax
	.loc 1 1389 0
	addl	$16, %esp
	.cfi_def_cfa_offset 10400
	.loc 1 1416 0
	shrl	$3, %eax
	movl	%eax, 24(%esp)
	.p2align 4,,10
	.p2align 3
.L754:
	.loc 1 1397 0
	movl	%edi, %eax
	movl	%edi, %esi
	andl	$7, %eax
	shrl	$3, %esi
	movl	%eax, %ebp
.L770:
	.loc 1 1389 0
	subl	$4, %esp
	.cfi_def_cfa_offset 10404
	pushl	16(%esp)
	.cfi_def_cfa_offset 10408
	pushl	$5000
	.cfi_def_cfa_offset 10412
	pushl	%edi
	.cfi_def_cfa_offset 10416
	call	fgets
.LVL376:
	addl	$16, %esp
	.cfi_def_cfa_offset 10400
	testl	%eax, %eax
	je	.L892
	.loc 1 1392 0
	subl	$8, %esp
	.cfi_def_cfa_offset 10408
	pushl	$35
	.cfi_def_cfa_offset 10412
	pushl	%edi
	.cfi_def_cfa_offset 10416
	call	strchr
.LVL377:
	addl	$16, %esp
	.cfi_def_cfa_offset 10400
.LVL378:
	.loc 1 1393 0
	testl	%eax, %eax
	je	.L755
	.loc 1 1394 0
	movl	%eax, %edx
	shrl	$3, %edx
	movzbl	536870912(%edx), %edx
	testb	%dl, %dl
	je	.L756
	movl	%eax, %ecx
	andl	$7, %ecx
	cmpb	%cl, %dl
	jle	.L893
.L756:
	movb	$0, (%eax)
.L755:
	.loc 1 1397 0
	movl	%edi, %eax
.LVL379:
.L757:
	movl	(%eax), %ecx
	addl	$4, %eax
	leal	-16843009(%ecx), %edx
	notl	%ecx
	andl	%ecx, %edx
	andl	$-2139062144, %edx
	je	.L757
	movl	%edx, %ecx
	shrl	$16, %ecx
	testl	$32896, %edx
	cmove	%ecx, %edx
	leal	2(%eax), %ecx
	cmove	%ecx, %eax
	addb	%dl, %dl
	movzbl	536870912(%esi), %edx
	sbbl	$3, %eax
	subl	%edi, %eax
	testb	%dl, %dl
	je	.L759
	movl	%ebp, %ebx
	cmpb	%bl, %dl
	jle	.L894
.L759:
	leal	(%edi,%eax), %edx
	movl	%edx, %ecx
	shrl	$3, %ecx
	movzbl	536870912(%ecx), %ecx
	testb	%cl, %cl
	je	.L760
	movl	%edx, %ebx
	andl	$7, %ebx
	cmpb	%bl, %cl
	jle	.L895
.L760:
	.loc 1 1398 0
	testl	%eax, %eax
	.loc 1 1397 0
	movl	%eax, %ecx
.LVL380:
	.loc 1 1398 0
	jle	.L761
.LVL381:
	.loc 1 1399 0
	subl	$1, %eax
.LVL382:
	leal	(%edi,%eax), %edx
	movl	%edx, %ecx
.LVL383:
	shrl	$3, %ecx
	movzbl	536870912(%ecx), %ecx
	testb	%cl, %cl
	je	.L762
	movl	%edx, %ebx
	andl	$7, %ebx
	cmpb	%bl, %cl
	jle	.L896
.L762:
	movl	8(%esp), %ebx
	movzbl	-10112(%eax,%ebx), %edx
	.loc 1 1400 0
	cmpb	$13, %dl
	sete	%bl
	.loc 1 1399 0
	cmpb	$32, %dl
	sete	%cl
	.loc 1 1400 0
	orb	%cl, %bl
	jne	.L763
	.loc 1 1399 0
	subl	$9, %edx
	.loc 1 1400 0
	cmpb	$1, %dl
	ja	.L769
.L763:
	addl	%edi, %eax
.LVL384:
	.p2align 4,,10
	.p2align 3
.L853:
	.loc 1 1401 0
	movl	%eax, %edx
	movl	%eax, %ecx
	shrl	$3, %edx
	subl	%edi, %ecx
.LVL385:
	movzbl	536870912(%edx), %edx
	testb	%dl, %dl
	je	.L766
	movl	%eax, %ebx
	andl	$7, %ebx
	cmpb	%bl, %dl
	jle	.L897
.L766:
	.loc 1 1398 0
	cmpl	%edi, %eax
	.loc 1 1401 0
	movb	$0, (%eax)
	.loc 1 1398 0
	je	.L761
	leal	-1(%eax), %ecx
.LVL386:
	.loc 1 1399 0 discriminator 1
	movl	%ecx, %edx
	shrl	$3, %edx
	movzbl	536870912(%edx), %edx
	testb	%dl, %dl
	je	.L767
	movl	%ecx, %ebx
	andl	$7, %ebx
	cmpb	%bl, %dl
	jle	.L898
.L767:
	movzbl	-1(%eax), %edx
	movl	%ecx, %eax
.LVL387:
	.loc 1 1400 0 discriminator 1
	cmpb	$13, %dl
	sete	%bl
	.loc 1 1399 0 discriminator 1
	cmpb	$32, %dl
	sete	%cl
.LVL388:
	.loc 1 1400 0 discriminator 1
	orb	%cl, %bl
	jne	.L853
	.loc 1 1399 0 discriminator 1
	subl	$9, %edx
	.loc 1 1400 0 discriminator 1
	cmpb	$1, %dl
	jbe	.L853
.LVL389:
.L769:
	.loc 1 1408 0
	subl	$12, %esp
	.cfi_def_cfa_offset 10412
	movl	20(%esp), %ebx
	movl	%ebx, %eax
	leal	-10304(%ebx), %esi
	leal	-5056(%ebx), %ebp
	subl	$10240, %eax
	pushl	%esi
	.cfi_def_cfa_offset 10416
	pushl	%eax
	.cfi_def_cfa_offset 10420
	pushl	%ebp
	.cfi_def_cfa_offset 10424
	pushl	$.LC91
	.cfi_def_cfa_offset 10428
	pushl	%edi
	.cfi_def_cfa_offset 10432
	call	__isoc99_sscanf
.LVL390:
	addl	$32, %esp
	.cfi_def_cfa_offset 10400
	cmpl	$3, %eax
	je	.L764
	.loc 1 1410 0
	pushl	%esi
	.cfi_def_cfa_offset 10404
	pushl	%ebp
	.cfi_def_cfa_offset 10408
	pushl	$.LC92
	.cfi_def_cfa_offset 10412
	pushl	%edi
	.cfi_def_cfa_offset 10416
	call	__isoc99_sscanf
.LVL391:
	addl	$16, %esp
	.cfi_def_cfa_offset 10400
	cmpl	$2, %eax
	jne	.L771
	.loc 1 1411 0
	movl	8(%esp), %eax
	movl	$0, -10240(%eax)
	.p2align 4,,10
	.p2align 3
.L764:
	.loc 1 1423 0
	movl	8(%esp), %eax
	cmpb	$47, -5056(%eax)
	jne	.L775
	jmp	.L899
.LVL392:
	.p2align 4,,10
	.p2align 3
.L776:
	.loc 1 1426 0
	leal	2(%eax), %edx
	subl	$8, %esp
	.cfi_def_cfa_offset 10408
	addl	$1, %eax
.LVL393:
	pushl	%edx
	.cfi_def_cfa_offset 10412
	pushl	%eax
	.cfi_def_cfa_offset 10416
	call	strcpy
.LVL394:
	addl	$16, %esp
	.cfi_def_cfa_offset 10400
.L775:
	.loc 1 1425 0
	subl	$8, %esp
	.cfi_def_cfa_offset 10408
	pushl	$.LC95
	.cfi_def_cfa_offset 10412
	pushl	%ebp
	.cfi_def_cfa_offset 10416
	call	strstr
.LVL395:
	addl	$16, %esp
	.cfi_def_cfa_offset 10400
.LVL396:
	testl	%eax, %eax
	jne	.L776
	.loc 1 1429 0
	movl	numthrottles, %edx
	movl	maxthrottles, %eax
.LVL397:
	cmpl	%eax, %edx
	jl	.L777
	.loc 1 1431 0
	testl	%eax, %eax
	jne	.L778
	.loc 1 1434 0
	subl	$12, %esp
	.cfi_def_cfa_offset 10412
	.loc 1 1433 0
	movl	$100, maxthrottles
	.loc 1 1434 0
	pushl	$2400
	.cfi_def_cfa_offset 10416
	call	malloc
.LVL398:
	addl	$16, %esp
	.cfi_def_cfa_offset 10400
	movl	%eax, throttles
.L779:
	.loc 1 1441 0
	testl	%eax, %eax
	je	.L780
	movl	numthrottles, %edx
.L781:
	.loc 1 1452 0
	leal	(%edx,%edx,2), %edx
	leal	(%eax,%edx,8), %esi
	movl	%ebp, %eax
	call	e_strdup
.LVL399:
	movl	%esi, %edx
	shrl	$3, %edx
	movzbl	536870912(%edx), %edx
	testb	%dl, %dl
	je	.L783
	movl	%esi, %ecx
	andl	$7, %ecx
	addl	$3, %ecx
	cmpb	%dl, %cl
	jge	.L900
.L783:
	.loc 1 1453 0
	movl	numthrottles, %ebp
	.loc 1 1452 0
	movl	%eax, (%esi)
	.loc 1 1453 0
	movl	throttles, %eax
	movl	8(%esp), %esi
	leal	0(%ebp,%ebp,2), %edx
	movl	-10304(%esi), %esi
	leal	(%eax,%edx,8), %eax
	leal	4(%eax), %ecx
	movl	%ecx, %edx
	shrl	$3, %edx
	movzbl	536870912(%edx), %edx
	testb	%dl, %dl
	je	.L784
	movl	%ecx, %ebx
	andl	$7, %ebx
	addl	$3, %ebx
	cmpb	%dl, %bl
	jge	.L901
.L784:
	.loc 1 1454 0
	leal	8(%eax), %ecx
	.loc 1 1453 0
	movl	%esi, 4(%eax)
	.loc 1 1454 0
	movl	8(%esp), %esi
	movl	%ecx, %edx
	shrl	$3, %edx
	movl	-10240(%esi), %esi
	movzbl	536870912(%edx), %edx
	testb	%dl, %dl
	je	.L785
	movl	%ecx, %ebx
	andl	$7, %ebx
	addl	$3, %ebx
	cmpb	%dl, %bl
	jge	.L902
.L785:
	.loc 1 1455 0
	leal	12(%eax), %ecx
	.loc 1 1454 0
	movl	%esi, 8(%eax)
	.loc 1 1455 0
	movl	%ecx, %edx
	shrl	$3, %edx
	movzbl	536870912(%edx), %edx
	testb	%dl, %dl
	je	.L786
	movl	%ecx, %esi
	andl	$7, %esi
	addl	$3, %esi
	movl	%esi, %ebx
	cmpb	%dl, %bl
	jge	.L903
.L786:
	.loc 1 1456 0
	leal	16(%eax), %ecx
	.loc 1 1455 0
	movl	$0, 12(%eax)
	.loc 1 1456 0
	movl	%ecx, %edx
	shrl	$3, %edx
	movzbl	536870912(%edx), %edx
	testb	%dl, %dl
	je	.L787
	movl	%ecx, %esi
	andl	$7, %esi
	addl	$3, %esi
	movl	%esi, %ebx
	cmpb	%dl, %bl
	jge	.L904
.L787:
	.loc 1 1457 0
	leal	20(%eax), %ecx
	.loc 1 1456 0
	movl	$0, 16(%eax)
	.loc 1 1457 0
	movl	%ecx, %edx
	shrl	$3, %edx
	movzbl	536870912(%edx), %edx
	testb	%dl, %dl
	je	.L788
	movl	%ecx, %esi
	andl	$7, %esi
	addl	$3, %esi
	movl	%esi, %ebx
	cmpb	%dl, %bl
	jge	.L905
.L788:
	movl	$0, 20(%eax)
	.loc 1 1459 0
	leal	1(%ebp), %eax
	movl	%eax, numthrottles
	jmp	.L754
.LVL400:
	.p2align 4,,10
	.p2align 3
.L761:
	.loc 1 1404 0
	testl	%ecx, %ecx
	je	.L770
	jmp	.L769
.LVL401:
.L778:
	.loc 1 1438 0
	leal	(%eax,%eax), %edx
	.loc 1 1439 0
	subl	$8, %esp
	.cfi_def_cfa_offset 10408
	leal	(%edx,%eax,4), %eax
	.loc 1 1438 0
	movl	%edx, maxthrottles
	.loc 1 1439 0
	sall	$3, %eax
	pushl	%eax
	.cfi_def_cfa_offset 10412
	pushl	throttles
	.cfi_def_cfa_offset 10416
	call	realloc
.LVL402:
	addl	$16, %esp
	.cfi_def_cfa_offset 10400
	movl	%eax, throttles
	jmp	.L779
.L771:
	.loc 1 1414 0
	pushl	%edi
	.cfi_def_cfa_offset 10404
	pushl	20(%esp)
	.cfi_def_cfa_offset 10408
	pushl	$.LC93
	.cfi_def_cfa_offset 10412
	pushl	$2
	.cfi_def_cfa_offset 10416
	call	syslog
.LVL403:
	.loc 1 1416 0
	movl	40(%esp), %eax
	addl	$16, %esp
	.cfi_def_cfa_offset 10400
	movl	argv0, %edx
	movzbl	536870912(%eax), %eax
	testb	%al, %al
	je	.L772
	movl	$stderr, %ecx
	andl	$7, %ecx
	addl	$3, %ecx
	cmpb	%al, %cl
	jge	.L906
.L772:
	subl	$12, %esp
	.cfi_def_cfa_offset 10412
	pushl	%edi
	.cfi_def_cfa_offset 10416
	pushl	32(%esp)
	.cfi_def_cfa_offset 10420
	pushl	%edx
	.cfi_def_cfa_offset 10424
	pushl	$.LC94
	.cfi_def_cfa_offset 10428
	pushl	stderr
	.cfi_def_cfa_offset 10432
	call	fprintf
.LVL404:
	.loc 1 1419 0
	addl	$32, %esp
	.cfi_def_cfa_offset 10400
	jmp	.L754
.L777:
	movl	throttles, %eax
	jmp	.L781
.L892:
	.loc 1 1461 0
	subl	$12, %esp
	.cfi_def_cfa_offset 10412
	pushl	24(%esp)
	.cfi_def_cfa_offset 10416
	call	fclose
.LVL405:
	addl	$16, %esp
	.cfi_def_cfa_offset 10400
	.loc 1 1370 0
	leal	32(%esp), %eax
	cmpl	20(%esp), %eax
	jne	.L907
	movl	28(%esp), %esi
	xorl	%edx, %edx
	leal	536870916(%esi), %ecx
	movl	%esi, %eax
	movl	$0, 536870912(%esi)
	addl	$536870912, %eax
	movl	$0, 536870936(%esi)
	andl	$-4, %ecx
	subl	%ecx, %eax
	addl	$28, %eax
	andl	$-4, %eax
.L750:
	movl	$0, (%ecx,%edx)
	addl	$4, %edx
	cmpl	%eax, %edx
	jb	.L750
	movl	28(%esp), %eax
	movl	$0, 536871564(%eax)
	movl	$0, 536871568(%eax)
	movl	$0, 536872196(%eax)
	movl	$0, 536872200(%eax)
.LVL406:
.L749:
	.loc 1 1462 0
	addl	$10380, %esp
	.cfi_remember_state
	.cfi_def_cfa_offset 20
	popl	%ebx
	.cfi_restore 3
	.cfi_def_cfa_offset 16
	popl	%esi
	.cfi_restore 6
	.cfi_def_cfa_offset 12
	popl	%edi
	.cfi_restore 7
	.cfi_def_cfa_offset 8
	popl	%ebp
	.cfi_restore 5
	.cfi_def_cfa_offset 4
	ret
.LVL407:
.L899:
	.cfi_restore_state
	.loc 1 1424 0
	pushl	%eax
	.cfi_def_cfa_offset 10404
	pushl	%eax
	.cfi_def_cfa_offset 10408
	movl	16(%esp), %eax
	subl	$5055, %eax
	pushl	%eax
	.cfi_def_cfa_offset 10412
	pushl	%ebp
	.cfi_def_cfa_offset 10416
	call	strcpy
.LVL408:
	addl	$16, %esp
	.cfi_def_cfa_offset 10400
	jmp	.L775
.LVL409:
.L890:
	.loc 1 1370 0
	pushl	%eax
	.cfi_def_cfa_offset 10404
	pushl	%eax
	.cfi_def_cfa_offset 10408
	pushl	28(%esp)
	.cfi_def_cfa_offset 10412
	pushl	$10336
	.cfi_def_cfa_offset 10416
	call	__asan_stack_malloc_8
.LVL410:
	addl	$16, %esp
	.cfi_def_cfa_offset 10400
	movl	%eax, 20(%esp)
	jmp	.L747
.LVL411:
.L907:
	movl	20(%esp), %eax
	movl	$1172321806, (%eax)
.LVL412:
	pushl	%edx
	.cfi_def_cfa_offset 10404
	leal	36(%esp), %esi
	pushl	%esi
	.cfi_def_cfa_offset 10408
	pushl	$10336
	.cfi_def_cfa_offset 10412
	pushl	%eax
	.cfi_def_cfa_offset 10416
	call	__asan_stack_free_8
.LVL413:
	addl	$16, %esp
	.cfi_def_cfa_offset 10400
	jmp	.L749
.LVL414:
.L906:
	.loc 1 1416 0
	subl	$12, %esp
	.cfi_remember_state
	.cfi_def_cfa_offset 10412
	pushl	$stderr
	.cfi_def_cfa_offset 10416
	call	__asan_report_load4
.LVL415:
.L905:
	.cfi_restore_state
	.loc 1 1457 0
	subl	$12, %esp
	.cfi_remember_state
	.cfi_def_cfa_offset 10412
	pushl	%ecx
	.cfi_def_cfa_offset 10416
	call	__asan_report_store4
.LVL416:
.L904:
	.cfi_restore_state
	.loc 1 1456 0
	subl	$12, %esp
	.cfi_remember_state
	.cfi_def_cfa_offset 10412
	pushl	%ecx
	.cfi_def_cfa_offset 10416
	call	__asan_report_store4
.LVL417:
.L903:
	.cfi_restore_state
	.loc 1 1455 0
	subl	$12, %esp
	.cfi_remember_state
	.cfi_def_cfa_offset 10412
	pushl	%ecx
	.cfi_def_cfa_offset 10416
	call	__asan_report_store4
.LVL418:
.L902:
	.cfi_restore_state
	.loc 1 1454 0
	subl	$12, %esp
	.cfi_remember_state
	.cfi_def_cfa_offset 10412
	pushl	%ecx
	.cfi_def_cfa_offset 10416
	call	__asan_report_store4
.LVL419:
.L901:
	.cfi_restore_state
	.loc 1 1453 0
	subl	$12, %esp
	.cfi_remember_state
	.cfi_def_cfa_offset 10412
	pushl	%ecx
	.cfi_def_cfa_offset 10416
	call	__asan_report_store4
.LVL420:
.L900:
	.cfi_restore_state
	.loc 1 1452 0
	subl	$12, %esp
	.cfi_remember_state
	.cfi_def_cfa_offset 10412
	pushl	%esi
	.cfi_def_cfa_offset 10416
	call	__asan_report_store4
.LVL421:
.L780:
	.cfi_restore_state
	.loc 1 1443 0
	pushl	%esi
	.cfi_def_cfa_offset 10404
	pushl	%esi
	.cfi_def_cfa_offset 10408
	pushl	$.LC96
	.cfi_def_cfa_offset 10412
	pushl	$2
	.cfi_def_cfa_offset 10416
	call	syslog
.LVL422:
	.loc 1 1444 0
	movl	$stderr, %eax
	addl	$16, %esp
	.cfi_def_cfa_offset 10400
	movl	argv0, %ecx
	movl	%eax, %edx
	shrl	$3, %edx
	movzbl	536870912(%edx), %edx
	testb	%dl, %dl
	je	.L782
	andl	$7, %eax
	addl	$3, %eax
	cmpb	%dl, %al
	jge	.L908
.L782:
	pushl	%ebx
	.cfi_remember_state
	.cfi_def_cfa_offset 10404
	pushl	%ecx
	.cfi_def_cfa_offset 10408
	pushl	$.LC97
	.cfi_def_cfa_offset 10412
	pushl	stderr
	.cfi_def_cfa_offset 10416
	call	fprintf
.LVL423:
	.loc 1 1447 0
	call	__asan_handle_no_return
.LVL424:
	movl	$1, (%esp)
	call	exit
.LVL425:
.L895:
	.cfi_restore_state
	.loc 1 1397 0
	subl	$12, %esp
	.cfi_remember_state
	.cfi_def_cfa_offset 10412
	pushl	%edx
	.cfi_def_cfa_offset 10416
	call	__asan_report_load1
.LVL426:
.L894:
	.cfi_restore_state
	subl	$12, %esp
	.cfi_remember_state
	.cfi_def_cfa_offset 10412
	pushl	%edi
	.cfi_def_cfa_offset 10416
	call	__asan_report_load1
.LVL427:
.L893:
	.cfi_restore_state
	.loc 1 1394 0
	subl	$12, %esp
	.cfi_remember_state
	.cfi_def_cfa_offset 10412
	pushl	%eax
	.cfi_def_cfa_offset 10416
	call	__asan_report_store1
.LVL428:
.L891:
	.cfi_restore_state
.LVL429:
	.loc 1 1382 0
	pushl	%eax
	.cfi_remember_state
	.cfi_def_cfa_offset 10404
	movl	20(%esp), %esi
	pushl	%esi
	.cfi_def_cfa_offset 10408
	pushl	$.LC90
	.cfi_def_cfa_offset 10412
	pushl	$2
	.cfi_def_cfa_offset 10416
	call	syslog
.LVL430:
	.loc 1 1383 0
	movl	%esi, (%esp)
	call	perror
.LVL431:
	.loc 1 1384 0
	call	__asan_handle_no_return
.LVL432:
	movl	$1, (%esp)
	call	exit
.LVL433:
.L897:
	.cfi_restore_state
	.loc 1 1401 0
	subl	$12, %esp
	.cfi_remember_state
	.cfi_def_cfa_offset 10412
	pushl	%eax
	.cfi_def_cfa_offset 10416
	call	__asan_report_store1
.LVL434:
.L896:
	.cfi_restore_state
	.loc 1 1399 0
	subl	$12, %esp
	.cfi_remember_state
	.cfi_def_cfa_offset 10412
	pushl	%edx
	.cfi_def_cfa_offset 10416
	call	__asan_report_load1
.LVL435:
.L898:
	.cfi_restore_state
	subl	$12, %esp
	.cfi_remember_state
	.cfi_def_cfa_offset 10412
	pushl	%ecx
	.cfi_def_cfa_offset 10416
	call	__asan_report_load1
.LVL436:
.L908:
	.cfi_restore_state
	.loc 1 1444 0
	subl	$12, %esp
	.cfi_def_cfa_offset 10412
	pushl	$stderr
	.cfi_def_cfa_offset 10416
	call	__asan_report_load4
.LVL437:
	.cfi_endproc
.LFE15:
	.size	read_throttlefile, .-read_throttlefile
	.section	.text.unlikely
.LCOLDE98:
	.text
.LHOTE98:
	.section	.rodata
	.align 32
.LC99:
	.string	"-"
	.zero	62
	.align 32
.LC100:
	.string	"re-opening logfile"
	.zero	45
	.align 32
.LC101:
	.string	"a"
	.zero	62
	.align 32
.LC102:
	.string	"re-opening %.80s - %m"
	.zero	42
	.section	.text.unlikely
.LCOLDB103:
	.text
.LHOTB103:
	.p2align 4,,15
	.type	re_open_logfile, @function
re_open_logfile:
.LASANPC6:
.LFB6:
	.loc 1 327 0
	.cfi_startproc
	.loc 1 331 0
	movl	no_log, %eax
	testl	%eax, %eax
	jne	.L922
	.loc 1 331 0 is_stmt 0 discriminator 1
	movl	hs, %eax
	testl	%eax, %eax
	je	.L922
	.loc 1 327 0 is_stmt 1
	pushl	%edi
	.cfi_def_cfa_offset 8
	.cfi_offset 7, -8
	pushl	%esi
	.cfi_def_cfa_offset 12
	.cfi_offset 6, -12
	subl	$4, %esp
	.cfi_def_cfa_offset 16
	.loc 1 335 0
	movl	logfile, %esi
	testl	%esi, %esi
	je	.L909
	.loc 1 335 0 is_stmt 0 discriminator 1
	movl	$.LC99, %edi
	movl	$2, %ecx
	repz; cmpsb
	jne	.L923
.L909:
	.loc 1 348 0 is_stmt 1
	addl	$4, %esp
	.cfi_def_cfa_offset 12
	popl	%esi
	.cfi_restore 6
	.cfi_def_cfa_offset 8
	popl	%edi
	.cfi_restore 7
	.cfi_def_cfa_offset 4
.L922:
	rep; ret
	.p2align 4,,10
	.p2align 3
.L923:
	.cfi_def_cfa_offset 16
	.cfi_offset 6, -12
	.cfi_offset 7, -8
	.loc 1 337 0
	subl	$8, %esp
	.cfi_def_cfa_offset 24
	pushl	$.LC100
	.cfi_def_cfa_offset 28
	pushl	$5
	.cfi_def_cfa_offset 32
	call	syslog
	.loc 1 338 0
	popl	%ecx
	.cfi_def_cfa_offset 28
	popl	%esi
	.cfi_def_cfa_offset 24
	pushl	$.LC101
	.cfi_def_cfa_offset 28
	pushl	logfile
	.cfi_def_cfa_offset 32
	call	fopen
	.loc 1 339 0
	popl	%edi
	.cfi_def_cfa_offset 28
	.loc 1 338 0
	movl	%eax, %esi
	.loc 1 339 0
	popl	%eax
	.cfi_def_cfa_offset 24
	pushl	$384
	.cfi_def_cfa_offset 28
	pushl	logfile
	.cfi_def_cfa_offset 32
	call	chmod
	.loc 1 340 0
	addl	$16, %esp
	.cfi_def_cfa_offset 16
	testl	%eax, %eax
	jne	.L913
	testl	%esi, %esi
	je	.L913
	.loc 1 345 0
	subl	$12, %esp
	.cfi_def_cfa_offset 28
	pushl	%esi
	.cfi_def_cfa_offset 32
	call	fileno
	addl	$12, %esp
	.cfi_def_cfa_offset 20
	pushl	$1
	.cfi_def_cfa_offset 24
	pushl	$2
	.cfi_def_cfa_offset 28
	pushl	%eax
	.cfi_def_cfa_offset 32
	call	fcntl
	.loc 1 346 0
	popl	%eax
	.cfi_def_cfa_offset 28
	popl	%edx
	.cfi_def_cfa_offset 24
	pushl	%esi
	.cfi_def_cfa_offset 28
	pushl	hs
	.cfi_def_cfa_offset 32
	call	httpd_set_logfp
	addl	$16, %esp
	.cfi_def_cfa_offset 16
	.loc 1 348 0
	addl	$4, %esp
	.cfi_remember_state
	.cfi_def_cfa_offset 12
	popl	%esi
	.cfi_restore 6
	.cfi_def_cfa_offset 8
	popl	%edi
	.cfi_restore 7
	.cfi_def_cfa_offset 4
	jmp	.L922
	.p2align 4,,10
	.p2align 3
.L913:
	.cfi_restore_state
	.loc 1 342 0
	subl	$4, %esp
	.cfi_def_cfa_offset 20
	pushl	logfile
	.cfi_def_cfa_offset 24
	pushl	$.LC102
	.cfi_def_cfa_offset 28
	pushl	$2
	.cfi_def_cfa_offset 32
	call	syslog
	.loc 1 343 0
	addl	$16, %esp
	.cfi_def_cfa_offset 16
	jmp	.L909
	.cfi_endproc
.LFE6:
	.size	re_open_logfile, .-re_open_logfile
	.section	.text.unlikely
.LCOLDE103:
	.text
.LHOTE103:
	.section	.rodata
	.align 32
.LC104:
	.string	"too many connections!"
	.zero	42
	.align 32
.LC105:
	.string	"the connects free list is messed up"
	.zero	60
	.align 32
.LC106:
	.string	"out of memory allocating an httpd_conn"
	.zero	57
	.section	.text.unlikely
.LCOLDB107:
	.text
.LHOTB107:
	.p2align 4,,15
	.type	handle_newconnect, @function
handle_newconnect:
.LASANPC17:
.LFB17:
	.loc 1 1505 0
	.cfi_startproc
.LVL438:
	pushl	%ebp
	.cfi_def_cfa_offset 8
	.cfi_offset 5, -8
	pushl	%edi
	.cfi_def_cfa_offset 12
	.cfi_offset 7, -12
	movl	%eax, %edi
	pushl	%esi
	.cfi_def_cfa_offset 16
	.cfi_offset 6, -16
	movl	%edx, %ebp
	pushl	%ebx
	.cfi_def_cfa_offset 20
	.cfi_offset 3, -20
	.loc 1 1566 0
	movl	%edi, %edx
.LVL439:
	andl	$7, %edx
	.loc 1 1505 0
	subl	$28, %esp
	.cfi_def_cfa_offset 48
	movl	num_connects, %eax
.LVL440:
	.loc 1 1566 0
	leal	3(%edx), %ecx
	movb	%cl, 8(%esp)
.L949:
	.loc 1 1516 0
	cmpl	%eax, max_connects
	jle	.L1053
	.loc 1 1527 0
	movl	first_free_connect, %eax
	cmpl	$-1, %eax
	je	.L929
	.loc 1 1527 0 is_stmt 0 discriminator 1
	leal	(%eax,%eax,2), %ebx
	sall	$5, %ebx
	addl	connects, %ebx
	movl	%ebx, %eax
	shrl	$3, %eax
	movzbl	536870912(%eax), %eax
	testb	%al, %al
	je	.L928
	movl	%ebx, %edx
	andl	$7, %edx
	addl	$3, %edx
	cmpb	%al, %dl
	jge	.L1054
.L928:
	movl	(%ebx), %edx
	testl	%edx, %edx
	jne	.L929
.LVL441:
	.loc 1 1534 0 is_stmt 1
	leal	8(%ebx), %esi
	movl	%esi, %eax
	shrl	$3, %eax
	movzbl	536870912(%eax), %eax
	testb	%al, %al
	je	.L930
	movl	%esi, %edx
	andl	$7, %edx
	addl	$3, %edx
	cmpb	%al, %dl
	jge	.L1055
.L930:
	movl	8(%ebx), %eax
	testl	%eax, %eax
	je	.L1056
.L931:
	.loc 1 1547 0
	subl	$4, %esp
	.cfi_def_cfa_offset 52
	pushl	%eax
	.cfi_def_cfa_offset 56
	pushl	%ebp
	.cfi_def_cfa_offset 60
	pushl	hs
	.cfi_def_cfa_offset 64
	call	httpd_get_conn
.LVL442:
	addl	$16, %esp
	.cfi_def_cfa_offset 48
	testl	%eax, %eax
	je	.L936
	cmpl	$2, %eax
	je	.L951
	.loc 1 1560 0
	movl	%ebx, %eax
	shrl	$3, %eax
	movzbl	536870912(%eax), %eax
	testb	%al, %al
	je	.L937
	movl	%ebx, %edx
	andl	$7, %edx
	addl	$3, %edx
	cmpb	%al, %dl
	jge	.L1057
.L937:
	.loc 1 1562 0
	leal	4(%ebx), %eax
	.loc 1 1560 0
	movl	$1, (%ebx)
	.loc 1 1562 0
	movl	%eax, %edx
	shrl	$3, %edx
	movzbl	536870912(%edx), %edx
	testb	%dl, %dl
	je	.L938
	movl	%eax, %ecx
	andl	$7, %ecx
	addl	$3, %ecx
	cmpb	%dl, %cl
	jge	.L1058
.L938:
	movl	4(%ebx), %eax
	.loc 1 1564 0
	addl	$1, num_connects
.LVL443:
	.loc 1 1563 0
	movl	$-1, 4(%ebx)
	.loc 1 1562 0
	movl	%eax, first_free_connect
	.loc 1 1566 0
	movl	%edi, %eax
	shrl	$3, %eax
	movzbl	536870912(%eax), %eax
	testb	%al, %al
	je	.L939
	cmpb	%al, 8(%esp)
	jge	.L1059
.L939:
	movl	(%edi), %eax
	movl	%eax, 12(%esp)
	leal	68(%ebx), %eax
	movl	%eax, %edx
	shrl	$3, %edx
	movzbl	536870912(%edx), %edx
	testb	%dl, %dl
	je	.L940
	movl	%eax, %ecx
	andl	$7, %ecx
	addl	$3, %ecx
	cmpb	%dl, %cl
	jge	.L1060
.L940:
	movl	12(%esp), %eax
	movl	%eax, 68(%ebx)
	.loc 1 1567 0
	leal	72(%ebx), %eax
	movl	%eax, %edx
	shrl	$3, %edx
	movzbl	536870912(%edx), %edx
	testb	%dl, %dl
	je	.L941
	movl	%eax, %ecx
	andl	$7, %ecx
	addl	$3, %ecx
	cmpb	%dl, %cl
	jge	.L1061
.L941:
	.loc 1 1568 0
	leal	76(%ebx), %eax
	.loc 1 1567 0
	movl	$0, 72(%ebx)
	.loc 1 1568 0
	movl	%eax, %edx
	shrl	$3, %edx
	movzbl	536870912(%edx), %edx
	testb	%dl, %dl
	je	.L942
	movl	%eax, %ecx
	andl	$7, %ecx
	addl	$3, %ecx
	cmpb	%dl, %cl
	jge	.L1062
.L942:
	.loc 1 1569 0
	leal	92(%ebx), %eax
	.loc 1 1568 0
	movl	$0, 76(%ebx)
	.loc 1 1569 0
	movl	%eax, %edx
	shrl	$3, %edx
	movzbl	536870912(%edx), %edx
	testb	%dl, %dl
	je	.L943
	movl	%eax, %ecx
	andl	$7, %ecx
	addl	$3, %ecx
	cmpb	%dl, %cl
	jge	.L1063
.L943:
	.loc 1 1570 0
	leal	52(%ebx), %eax
	.loc 1 1569 0
	movl	$0, 92(%ebx)
	.loc 1 1570 0
	movl	%eax, %edx
	shrl	$3, %edx
	movzbl	536870912(%edx), %edx
	testb	%dl, %dl
	je	.L944
	movl	%eax, %ecx
	andl	$7, %ecx
	addl	$3, %ecx
	cmpb	%dl, %cl
	jge	.L1064
.L944:
	.loc 1 1573 0
	movl	%esi, %eax
	.loc 1 1570 0
	movl	$0, 52(%ebx)
	.loc 1 1573 0
	shrl	$3, %eax
	movzbl	536870912(%eax), %eax
	testb	%al, %al
	je	.L945
	movl	%esi, %edx
	andl	$7, %edx
	addl	$3, %edx
	cmpb	%al, %dl
	jge	.L1065
.L945:
	movl	8(%ebx), %eax
	leal	448(%eax), %ecx
	movl	%ecx, %edx
	shrl	$3, %edx
	movzbl	536870912(%edx), %edx
	testb	%dl, %dl
	movb	%dl, 12(%esp)
	je	.L946
	movl	%ecx, %edx
	andl	$7, %edx
	addl	$3, %edx
	cmpb	12(%esp), %dl
	jge	.L1066
.L946:
	subl	$12, %esp
	.cfi_def_cfa_offset 60
	pushl	448(%eax)
	.cfi_def_cfa_offset 64
	call	httpd_set_ndelay
.LVL444:
	.loc 1 1575 0
	movl	%esi, %eax
	addl	$16, %esp
	.cfi_def_cfa_offset 48
	shrl	$3, %eax
	movzbl	536870912(%eax), %eax
	testb	%al, %al
	je	.L947
	movl	%esi, %edx
	andl	$7, %edx
	addl	$3, %edx
	cmpb	%al, %dl
	jge	.L1067
.L947:
	movl	8(%ebx), %eax
	leal	448(%eax), %esi
	movl	%esi, %ecx
	movl	%esi, 12(%esp)
	shrl	$3, %ecx
	movzbl	536870912(%ecx), %ecx
	testb	%cl, %cl
	je	.L948
	andl	$7, %esi
	addl	$3, %esi
	movl	%esi, %edx
	cmpb	%cl, %dl
	jge	.L1068
.L948:
	subl	$4, %esp
	.cfi_def_cfa_offset 52
	pushl	$0
	.cfi_def_cfa_offset 56
	pushl	%ebx
	.cfi_def_cfa_offset 60
	pushl	448(%eax)
	.cfi_def_cfa_offset 64
	call	fdwatch_add_fd
.LVL445:
	.loc 1 1577 0
	addl	$1, stats_connections
	.loc 1 1578 0
	movl	num_connects, %eax
	addl	$16, %esp
	.cfi_def_cfa_offset 48
	cmpl	stats_simultaneous, %eax
	jle	.L949
	.loc 1 1579 0
	movl	%eax, stats_simultaneous
	jmp	.L949
.LVL446:
	.p2align 4,,10
	.p2align 3
.L951:
	.loc 1 1558 0
	movl	$1, %eax
.LVL447:
.L926:
	.loc 1 1581 0
	addl	$28, %esp
	.cfi_remember_state
	.cfi_def_cfa_offset 20
	popl	%ebx
	.cfi_restore 3
	.cfi_def_cfa_offset 16
	popl	%esi
	.cfi_restore 6
	.cfi_def_cfa_offset 12
	popl	%edi
	.cfi_restore 7
	.cfi_def_cfa_offset 8
.LVL448:
	popl	%ebp
	.cfi_restore 5
	.cfi_def_cfa_offset 4
.LVL449:
	ret
.LVL450:
	.p2align 4,,10
	.p2align 3
.L936:
	.cfi_restore_state
	movl	%eax, 8(%esp)
	.loc 1 1553 0
	subl	$12, %esp
	.cfi_def_cfa_offset 60
	pushl	%edi
	.cfi_def_cfa_offset 64
	call	tmr_run
.LVL451:
	.loc 1 1554 0
	addl	$16, %esp
	.cfi_def_cfa_offset 48
	movl	8(%esp), %eax
	.loc 1 1581 0
	addl	$28, %esp
	.cfi_remember_state
	.cfi_def_cfa_offset 20
	popl	%ebx
	.cfi_restore 3
	.cfi_def_cfa_offset 16
.LVL452:
	popl	%esi
	.cfi_restore 6
	.cfi_def_cfa_offset 12
.LVL453:
	popl	%edi
	.cfi_restore 7
	.cfi_def_cfa_offset 8
.LVL454:
	popl	%ebp
	.cfi_restore 5
	.cfi_def_cfa_offset 4
.LVL455:
	ret
.LVL456:
	.p2align 4,,10
	.p2align 3
.L1056:
	.cfi_restore_state
	.loc 1 1536 0
	subl	$12, %esp
	.cfi_def_cfa_offset 60
	pushl	$456
	.cfi_def_cfa_offset 64
	call	malloc
.LVL457:
	movl	%esi, %edx
	addl	$16, %esp
	.cfi_def_cfa_offset 48
	shrl	$3, %edx
	movzbl	536870912(%edx), %edx
	testb	%dl, %dl
	je	.L932
	movl	%esi, %ecx
	andl	$7, %ecx
	addl	$3, %ecx
	cmpb	%dl, %cl
	jge	.L1069
.L932:
	.loc 1 1537 0
	testl	%eax, %eax
	.loc 1 1536 0
	movl	%eax, 8(%ebx)
	.loc 1 1537 0
	je	.L1070
	.loc 1 1542 0
	movl	%eax, %edx
	shrl	$3, %edx
	movzbl	536870912(%edx), %edx
	testb	%dl, %dl
	je	.L934
	movl	%eax, %ecx
	andl	$7, %ecx
	addl	$3, %ecx
	cmpb	%dl, %cl
	jge	.L1071
.L934:
	movl	$0, (%eax)
	.loc 1 1543 0
	addl	$1, httpd_conn_count
	jmp	.L931
.L1071:
	.loc 1 1542 0
	subl	$12, %esp
	.cfi_remember_state
	.cfi_def_cfa_offset 60
	pushl	%eax
	.cfi_def_cfa_offset 64
	call	__asan_report_store4
.LVL458:
.L1069:
	.cfi_restore_state
	.loc 1 1536 0
	subl	$12, %esp
	.cfi_remember_state
	.cfi_def_cfa_offset 60
	pushl	%esi
	.cfi_def_cfa_offset 64
	call	__asan_report_store4
.LVL459:
	.p2align 4,,10
	.p2align 3
.L1053:
	.cfi_restore_state
	.loc 1 1522 0
	subl	$8, %esp
	.cfi_def_cfa_offset 56
	pushl	$.LC104
	.cfi_def_cfa_offset 60
	pushl	$4
	.cfi_def_cfa_offset 64
	call	syslog
.LVL460:
	.loc 1 1523 0
	movl	%edi, (%esp)
	call	tmr_run
.LVL461:
	.loc 1 1524 0
	addl	$16, %esp
	.cfi_def_cfa_offset 48
	xorl	%eax, %eax
	jmp	.L926
.L929:
	.loc 1 1529 0
	subl	$8, %esp
	.cfi_def_cfa_offset 56
	pushl	$.LC105
	.cfi_def_cfa_offset 60
.L1051:
	.loc 1 1539 0
	pushl	$2
	.cfi_def_cfa_offset 64
	call	syslog
.LVL462:
	.loc 1 1540 0
	call	__asan_handle_no_return
.LVL463:
	movl	$1, (%esp)
	call	exit
.LVL464:
.L1070:
	.cfi_def_cfa_offset 48
	.loc 1 1539 0
	pushl	%eax
	.cfi_remember_state
	.cfi_def_cfa_offset 52
	pushl	%eax
	.cfi_def_cfa_offset 56
	pushl	$.LC106
	.cfi_def_cfa_offset 60
	jmp	.L1051
.LVL465:
.L1059:
	.cfi_restore_state
	.loc 1 1566 0
	subl	$12, %esp
	.cfi_remember_state
	.cfi_def_cfa_offset 60
	pushl	%edi
	.cfi_def_cfa_offset 64
	call	__asan_report_load4
.LVL466:
.L1068:
	.cfi_restore_state
	movl	12(%esp), %edx
	.loc 1 1575 0
	subl	$12, %esp
	.cfi_remember_state
	.cfi_def_cfa_offset 60
	pushl	%edx
	.cfi_def_cfa_offset 64
	call	__asan_report_load4
.LVL467:
.L1054:
	.cfi_restore_state
	.loc 1 1527 0
	subl	$12, %esp
	.cfi_remember_state
	.cfi_def_cfa_offset 60
	pushl	%ebx
	.cfi_def_cfa_offset 64
	call	__asan_report_load4
.LVL468:
.L1057:
	.cfi_restore_state
	.loc 1 1560 0
	subl	$12, %esp
	.cfi_remember_state
	.cfi_def_cfa_offset 60
	pushl	%ebx
	.cfi_def_cfa_offset 64
	call	__asan_report_store4
.LVL469:
.L1058:
	.cfi_restore_state
	.loc 1 1562 0
	subl	$12, %esp
	.cfi_remember_state
	.cfi_def_cfa_offset 60
	pushl	%eax
	.cfi_def_cfa_offset 64
	call	__asan_report_load4
.LVL470:
.L1067:
	.cfi_restore_state
	.loc 1 1575 0
	subl	$12, %esp
	.cfi_remember_state
	.cfi_def_cfa_offset 60
	pushl	%esi
	.cfi_def_cfa_offset 64
	call	__asan_report_load4
.LVL471:
.L1060:
	.cfi_restore_state
	.loc 1 1566 0
	subl	$12, %esp
	.cfi_remember_state
	.cfi_def_cfa_offset 60
	pushl	%eax
	.cfi_def_cfa_offset 64
	call	__asan_report_store4
.LVL472:
.L1061:
	.cfi_restore_state
	.loc 1 1567 0
	subl	$12, %esp
	.cfi_remember_state
	.cfi_def_cfa_offset 60
	pushl	%eax
	.cfi_def_cfa_offset 64
	call	__asan_report_store4
.LVL473:
.L1062:
	.cfi_restore_state
	.loc 1 1568 0
	subl	$12, %esp
	.cfi_remember_state
	.cfi_def_cfa_offset 60
	pushl	%eax
	.cfi_def_cfa_offset 64
	call	__asan_report_store4
.LVL474:
.L1063:
	.cfi_restore_state
	.loc 1 1569 0
	subl	$12, %esp
	.cfi_remember_state
	.cfi_def_cfa_offset 60
	pushl	%eax
	.cfi_def_cfa_offset 64
	call	__asan_report_store4
.LVL475:
.L1064:
	.cfi_restore_state
	.loc 1 1570 0
	subl	$12, %esp
	.cfi_remember_state
	.cfi_def_cfa_offset 60
	pushl	%eax
	.cfi_def_cfa_offset 64
	call	__asan_report_store4
.LVL476:
.L1065:
	.cfi_restore_state
	.loc 1 1573 0
	subl	$12, %esp
	.cfi_remember_state
	.cfi_def_cfa_offset 60
	pushl	%esi
	.cfi_def_cfa_offset 64
	call	__asan_report_load4
.LVL477:
.L1066:
	.cfi_restore_state
	subl	$12, %esp
	.cfi_remember_state
	.cfi_def_cfa_offset 60
	pushl	%ecx
	.cfi_def_cfa_offset 64
	call	__asan_report_load4
.LVL478:
.L1055:
	.cfi_restore_state
	.loc 1 1534 0
	subl	$12, %esp
	.cfi_def_cfa_offset 60
	pushl	%esi
	.cfi_def_cfa_offset 64
	call	__asan_report_load4
.LVL479:
	.cfi_endproc
.LFE17:
	.size	handle_newconnect, .-handle_newconnect
	.section	.text.unlikely
.LCOLDE107:
	.text
.LHOTE107:
	.section	.rodata
	.align 32
.LC108:
	.string	"throttle sending count was negative - shouldn't happen!"
	.zero	40
	.section	.text.unlikely
.LCOLDB109:
	.text
.LHOTB109:
	.p2align 4,,15
	.type	check_throttles, @function
check_throttles:
.LASANPC21:
.LFB21:
	.loc 1 1883 0
	.cfi_startproc
.LVL480:
	pushl	%ebp
	.cfi_def_cfa_offset 8
	.cfi_offset 5, -8
	pushl	%edi
	.cfi_def_cfa_offset 12
	.cfi_offset 7, -12
	movl	%eax, %ebp
	pushl	%esi
	.cfi_def_cfa_offset 16
	.cfi_offset 6, -16
	pushl	%ebx
	.cfi_def_cfa_offset 20
	.cfi_offset 3, -20
	.loc 1 1887 0
	leal	52(%eax), %eax
.LVL481:
	.loc 1 1883 0
	subl	$60, %esp
	.cfi_def_cfa_offset 80
	.loc 1 1887 0
	movl	%eax, %edx
	movl	%eax, 12(%esp)
	shrl	$3, %eax
	movzbl	536870912(%eax), %eax
	testb	%al, %al
	je	.L1073
	andl	$7, %edx
	addl	$3, %edx
	cmpb	%al, %dl
	jge	.L1239
.L1073:
	.loc 1 1888 0
	leal	60(%ebp), %eax
	.loc 1 1887 0
	movl	$0, 52(%ebp)
	.loc 1 1888 0
	movl	%eax, %edx
	movl	%eax, 36(%esp)
	shrl	$3, %eax
	movzbl	536870912(%eax), %eax
	testb	%al, %al
	je	.L1074
	andl	$7, %edx
	addl	$3, %edx
	cmpb	%al, %dl
	jge	.L1240
.L1074:
	leal	56(%ebp), %eax
	movl	$-1, 60(%ebp)
	movl	%eax, %edx
	movl	%eax, 32(%esp)
	shrl	$3, %eax
	movzbl	536870912(%eax), %eax
	testb	%al, %al
	je	.L1075
	andl	$7, %edx
	addl	$3, %edx
	cmpb	%al, %dl
	jge	.L1241
.L1075:
	leal	8(%ebp), %eax
	.loc 1 1889 0
	xorl	%esi, %esi
	xorl	%edi, %edi
	.loc 1 1888 0
	movl	$-1, 56(%ebp)
.LVL482:
	movl	%eax, 16(%esp)
	.loc 1 1891 0
	andl	$7, %eax
	addl	$3, %eax
	movb	%al, 43(%esp)
	.loc 1 1889 0
	movl	numthrottles, %eax
	testl	%eax, %eax
	jg	.L1192
	jmp	.L1101
.LVL483:
	.p2align 4,,10
	.p2align 3
.L1099:
	.loc 1 1915 0
	movl	24(%esp), %ebx
	movl	36(%esp), %ecx
	cmpl	%eax, %ebx
	movl	%ecx, %edx
	cmovge	%ebx, %eax
	shrl	$3, %edx
	movzbl	536870912(%edx), %edx
	testb	%dl, %dl
	je	.L1100
	andl	$7, %ecx
	addl	$3, %ecx
	cmpb	%dl, %cl
	jge	.L1242
.L1100:
	movl	%eax, 60(%ebp)
.LVL484:
.L1081:
	.loc 1 1890 0
	addl	$1, %edi
.LVL485:
	.loc 1 1889 0
	cmpl	%edi, numthrottles
	jle	.L1101
.L1257:
	.loc 1 1889 0 is_stmt 0 discriminator 2
	movl	12(%esp), %edx
	movl	%edx, %eax
	shrl	$3, %eax
	movzbl	536870912(%eax), %eax
	testb	%al, %al
	je	.L1102
	andl	$7, %edx
	addl	$3, %edx
	cmpb	%al, %dl
	jge	.L1243
.L1102:
	addl	$24, %esi
	cmpl	$9, 52(%ebp)
	jg	.L1101
.LVL486:
.L1192:
	.loc 1 1891 0 is_stmt 1
	movl	16(%esp), %eax
	shrl	$3, %eax
	movzbl	536870912(%eax), %eax
	testb	%al, %al
	je	.L1078
	cmpb	%al, 43(%esp)
	jge	.L1244
.L1078:
	movl	8(%ebp), %eax
	leal	188(%eax), %edx
	movl	%edx, %ecx
	shrl	$3, %ecx
	movzbl	536870912(%ecx), %ecx
	testb	%cl, %cl
	je	.L1079
	movl	%edx, %ebx
	andl	$7, %ebx
	addl	$3, %ebx
	cmpb	%cl, %bl
	jge	.L1245
.L1079:
	movl	188(%eax), %ecx
	movl	throttles, %eax
	addl	%esi, %eax
	movl	%eax, %edx
	shrl	$3, %edx
	movzbl	536870912(%edx), %edx
	testb	%dl, %dl
	je	.L1080
	movl	%eax, %ebx
	andl	$7, %ebx
	addl	$3, %ebx
	cmpb	%dl, %bl
	jge	.L1246
.L1080:
	subl	$8, %esp
	.cfi_def_cfa_offset 88
	pushl	%ecx
	.cfi_def_cfa_offset 92
	pushl	(%eax)
	.cfi_def_cfa_offset 96
	call	match
.LVL487:
	addl	$16, %esp
	.cfi_def_cfa_offset 80
	testl	%eax, %eax
	je	.L1081
	.loc 1 1894 0
	movl	throttles, %edx
	addl	%esi, %edx
	movl	%edx, %eax
	movl	%edx, 8(%esp)
	addl	$12, %eax
	movl	%eax, %ecx
	shrl	$3, %ecx
	movzbl	536870912(%ecx), %ecx
	testb	%cl, %cl
	je	.L1082
	movl	%eax, %ebx
	andl	$7, %ebx
	addl	$3, %ebx
	cmpb	%cl, %bl
	jge	.L1247
.L1082:
	movl	8(%esp), %eax
	movl	12(%eax), %ebx
	addl	$4, %eax
	movl	%eax, %ecx
	shrl	$3, %ecx
	movzbl	536870912(%ecx), %ecx
	testb	%cl, %cl
	je	.L1083
	movl	%eax, %edx
	andl	$7, %edx
	addl	$3, %edx
	cmpb	%cl, %dl
	jge	.L1248
.L1083:
	movl	8(%esp), %ecx
	movl	4(%ecx), %eax
	movl	%eax, 20(%esp)
	addl	%eax, %eax
	cmpl	%eax, %ebx
	jg	.L1105
	.loc 1 1897 0
	leal	8(%ecx), %ecx
	movl	%ecx, %eax
	shrl	$3, %eax
	movzbl	536870912(%eax), %eax
	testb	%al, %al
	je	.L1084
	movl	%ecx, %edx
	andl	$7, %edx
	addl	$3, %edx
	cmpb	%al, %dl
	jge	.L1249
.L1084:
	movl	8(%esp), %ecx
	movl	8(%ecx), %eax
	cmpl	%eax, %ebx
	movl	%eax, 24(%esp)
	jl	.L1105
	.loc 1 1899 0
	movl	%ecx, %eax
	addl	$20, %eax
	movl	%eax, %ecx
	movl	%eax, 28(%esp)
	shrl	$3, %eax
	movzbl	536870912(%eax), %eax
	testb	%al, %al
	je	.L1085
	andl	$7, %ecx
	addl	$3, %ecx
	cmpb	%al, %cl
	jge	.L1250
.L1085:
	movl	8(%esp), %eax
	movl	20(%eax), %ecx
	testl	%ecx, %ecx
	js	.L1086
	addl	$1, %ecx
.L1087:
	.loc 1 1904 0
	movl	12(%esp), %ebx
	movl	%ebx, %eax
	shrl	$3, %eax
	movzbl	536870912(%eax), %eax
	testb	%al, %al
	je	.L1091
	andl	$7, %ebx
	addl	$3, %ebx
	cmpb	%al, %bl
	jge	.L1251
.L1091:
	movl	52(%ebp), %eax
	leal	1(%eax), %ebx
	movl	%ebx, 52(%ebp)
	leal	12(%ebp,%eax,4), %ebx
	movl	%ebx, %edx
	movl	%ebx, 44(%esp)
	shrl	$3, %ebx
	movzbl	536870912(%ebx), %ebx
	testb	%bl, %bl
	je	.L1092
	andl	$7, %edx
	addl	$3, %edx
	cmpb	%bl, %dl
	jge	.L1252
.L1092:
	.loc 1 1905 0
	movl	28(%esp), %ebx
	.loc 1 1904 0
	movl	%edi, 12(%ebp,%eax,4)
	.loc 1 1905 0
	movl	%ebx, %eax
	shrl	$3, %eax
	movzbl	536870912(%eax), %eax
	testb	%al, %al
	je	.L1093
	andl	$7, %ebx
	addl	$3, %ebx
	cmpb	%al, %bl
	jge	.L1253
.L1093:
	movl	8(%esp), %eax
	movl	%ecx, 20(%eax)
	.loc 1 1906 0
	movl	20(%esp), %eax
	cltd
	idivl	%ecx
.LVL488:
	.loc 1 1907 0
	movl	32(%esp), %ecx
	movl	%ecx, %edx
	shrl	$3, %edx
	movzbl	536870912(%edx), %edx
	testb	%dl, %dl
	je	.L1094
	andl	$7, %ecx
	addl	$3, %ecx
	cmpb	%dl, %cl
	jge	.L1254
.L1094:
	movl	56(%ebp), %edx
	cmpl	$-1, %edx
	je	.L1097
	.loc 1 1910 0
	movl	32(%esp), %ecx
	cmpl	%edx, %eax
	cmovg	%edx, %eax
.LVL489:
	movl	%ecx, %edx
	shrl	$3, %edx
	movzbl	536870912(%edx), %edx
	testb	%dl, %dl
	je	.L1097
	andl	$7, %ecx
	addl	$3, %ecx
	cmpb	%dl, %cl
	jge	.L1255
.L1097:
	.loc 1 1912 0
	movl	36(%esp), %edx
	.loc 1 1910 0
	movl	%eax, 56(%ebp)
.LVL490:
	.loc 1 1912 0
	movl	%edx, %eax
	shrl	$3, %eax
	movzbl	536870912(%eax), %eax
	testb	%al, %al
	je	.L1098
	andl	$7, %edx
	addl	$3, %edx
	cmpb	%al, %dl
	jge	.L1256
.L1098:
	movl	60(%ebp), %eax
	cmpl	$-1, %eax
	jne	.L1099
	.loc 1 1890 0
	addl	$1, %edi
.LVL491:
	.loc 1 1889 0
	cmpl	%edi, numthrottles
	.loc 1 1913 0
	movl	24(%esp), %eax
	movl	%eax, 60(%ebp)
	.loc 1 1889 0
	jg	.L1257
.LVL492:
	.p2align 4,,10
	.p2align 3
.L1101:
	.loc 1 1918 0
	addl	$60, %esp
	.cfi_remember_state
	.cfi_def_cfa_offset 20
	.loc 1 1917 0
	movl	$1, %eax
	.loc 1 1918 0
	popl	%ebx
	.cfi_restore 3
	.cfi_def_cfa_offset 16
	popl	%esi
	.cfi_restore 6
	.cfi_def_cfa_offset 12
	popl	%edi
	.cfi_restore 7
	.cfi_def_cfa_offset 8
	popl	%ebp
	.cfi_restore 5
	.cfi_def_cfa_offset 4
.LVL493:
	ret
.LVL494:
	.p2align 4,,10
	.p2align 3
.L1086:
	.cfi_restore_state
	.loc 1 1901 0
	subl	$8, %esp
	.cfi_def_cfa_offset 88
	pushl	$.LC108
	.cfi_def_cfa_offset 92
	pushl	$3
	.cfi_def_cfa_offset 96
	call	syslog
.LVL495:
	.loc 1 1902 0
	movl	throttles, %edx
	addl	%esi, %edx
	movl	%edx, %eax
	movl	%edx, 24(%esp)
	addl	$20, %eax
	movl	%eax, 44(%esp)
	movl	%eax, %ecx
	shrl	$3, %eax
	movzbl	536870912(%eax), %eax
	addl	$16, %esp
	.cfi_def_cfa_offset 80
	testb	%al, %al
	je	.L1088
	andl	$7, %ecx
	addl	$3, %ecx
	cmpb	%al, %cl
	jge	.L1258
.L1088:
	movl	8(%esp), %eax
	movl	$0, 20(%eax)
	addl	$4, %eax
	movl	%eax, %ecx
	shrl	$3, %ecx
	movzbl	536870912(%ecx), %ecx
	testb	%cl, %cl
	je	.L1089
	movl	%eax, %ebx
	andl	$7, %ebx
	addl	$3, %ebx
	cmpb	%cl, %bl
	jge	.L1259
.L1089:
	movl	8(%esp), %ebx
	movl	4(%ebx), %eax
	leal	8(%ebx), %ecx
	movl	%eax, 20(%esp)
	movl	%ecx, %eax
	shrl	$3, %eax
	movzbl	536870912(%eax), %eax
	testb	%al, %al
	je	.L1090
	movl	%ecx, %ebx
	andl	$7, %ebx
	addl	$3, %ebx
	cmpb	%al, %bl
	jge	.L1260
.L1090:
	movl	8(%esp), %eax
	movl	$1, %ecx
	movl	8(%eax), %eax
	movl	%eax, 24(%esp)
	jmp	.L1087
	.p2align 4,,10
	.p2align 3
.L1105:
	.loc 1 1918 0
	addl	$60, %esp
	.cfi_remember_state
	.cfi_def_cfa_offset 20
	.loc 1 1895 0
	xorl	%eax, %eax
	.loc 1 1918 0
	popl	%ebx
	.cfi_restore 3
	.cfi_def_cfa_offset 16
	popl	%esi
	.cfi_restore 6
	.cfi_def_cfa_offset 12
	popl	%edi
	.cfi_restore 7
	.cfi_def_cfa_offset 8
.LVL496:
	popl	%ebp
	.cfi_restore 5
	.cfi_def_cfa_offset 4
.LVL497:
	ret
.LVL498:
.L1260:
	.cfi_restore_state
	subl	$12, %esp
	.cfi_remember_state
	.cfi_def_cfa_offset 92
	pushl	%ecx
	.cfi_def_cfa_offset 96
	call	__asan_report_load4
.LVL499:
.L1259:
	.cfi_restore_state
	subl	$12, %esp
	.cfi_remember_state
	.cfi_def_cfa_offset 92
	pushl	%eax
	.cfi_def_cfa_offset 96
	call	__asan_report_load4
.LVL500:
.L1258:
	.cfi_restore_state
	.loc 1 1902 0
	subl	$12, %esp
	.cfi_remember_state
	.cfi_def_cfa_offset 92
	pushl	40(%esp)
	.cfi_def_cfa_offset 96
	call	__asan_report_store4
.LVL501:
.L1242:
	.cfi_restore_state
	.loc 1 1915 0
	subl	$12, %esp
	.cfi_remember_state
	.cfi_def_cfa_offset 92
	pushl	48(%esp)
	.cfi_def_cfa_offset 96
	call	__asan_report_store4
.LVL502:
.L1256:
	.cfi_restore_state
	.loc 1 1912 0
	subl	$12, %esp
	.cfi_remember_state
	.cfi_def_cfa_offset 92
	pushl	48(%esp)
	.cfi_def_cfa_offset 96
	call	__asan_report_load4
.LVL503:
.L1243:
	.cfi_restore_state
	.loc 1 1889 0
	subl	$12, %esp
	.cfi_remember_state
	.cfi_def_cfa_offset 92
	pushl	24(%esp)
	.cfi_def_cfa_offset 96
	call	__asan_report_load4
.LVL504:
.L1249:
	.cfi_restore_state
	.loc 1 1897 0
	subl	$12, %esp
	.cfi_remember_state
	.cfi_def_cfa_offset 92
	pushl	%ecx
	.cfi_def_cfa_offset 96
	call	__asan_report_load4
.LVL505:
.L1251:
	.cfi_restore_state
	.loc 1 1904 0
	subl	$12, %esp
	.cfi_remember_state
	.cfi_def_cfa_offset 92
	pushl	24(%esp)
	.cfi_def_cfa_offset 96
	call	__asan_report_load4
.LVL506:
.L1250:
	.cfi_restore_state
	.loc 1 1899 0
	subl	$12, %esp
	.cfi_remember_state
	.cfi_def_cfa_offset 92
	pushl	40(%esp)
	.cfi_def_cfa_offset 96
	call	__asan_report_load4
.LVL507:
.L1255:
	.cfi_restore_state
	.loc 1 1910 0
	subl	$12, %esp
	.cfi_remember_state
	.cfi_def_cfa_offset 92
	pushl	44(%esp)
	.cfi_def_cfa_offset 96
.LVL508:
	call	__asan_report_store4
.LVL509:
.L1254:
	.cfi_restore_state
	.loc 1 1907 0
	subl	$12, %esp
	.cfi_remember_state
	.cfi_def_cfa_offset 92
	pushl	44(%esp)
	.cfi_def_cfa_offset 96
	call	__asan_report_load4
.LVL510:
.L1253:
	.cfi_restore_state
	.loc 1 1905 0
	subl	$12, %esp
	.cfi_remember_state
	.cfi_def_cfa_offset 92
	pushl	40(%esp)
	.cfi_def_cfa_offset 96
	call	__asan_report_store4
.LVL511:
.L1252:
	.cfi_restore_state
	.loc 1 1904 0
	subl	$12, %esp
	.cfi_remember_state
	.cfi_def_cfa_offset 92
	pushl	56(%esp)
	.cfi_def_cfa_offset 96
	call	__asan_report_store4
.LVL512:
.L1248:
	.cfi_restore_state
	.loc 1 1894 0
	subl	$12, %esp
	.cfi_remember_state
	.cfi_def_cfa_offset 92
	pushl	%eax
	.cfi_def_cfa_offset 96
	call	__asan_report_load4
.LVL513:
.L1247:
	.cfi_restore_state
	subl	$12, %esp
	.cfi_remember_state
	.cfi_def_cfa_offset 92
	pushl	%eax
	.cfi_def_cfa_offset 96
	call	__asan_report_load4
.LVL514:
.L1246:
	.cfi_restore_state
	.loc 1 1891 0
	subl	$12, %esp
	.cfi_remember_state
	.cfi_def_cfa_offset 92
	pushl	%eax
	.cfi_def_cfa_offset 96
	call	__asan_report_load4
.LVL515:
.L1245:
	.cfi_restore_state
	subl	$12, %esp
	.cfi_remember_state
	.cfi_def_cfa_offset 92
	pushl	%edx
	.cfi_def_cfa_offset 96
	call	__asan_report_load4
.LVL516:
.L1244:
	.cfi_restore_state
	subl	$12, %esp
	.cfi_remember_state
	.cfi_def_cfa_offset 92
	pushl	28(%esp)
	.cfi_def_cfa_offset 96
	call	__asan_report_load4
.LVL517:
.L1241:
	.cfi_restore_state
	.loc 1 1888 0
	subl	$12, %esp
	.cfi_remember_state
	.cfi_def_cfa_offset 92
	pushl	44(%esp)
	.cfi_def_cfa_offset 96
	call	__asan_report_store4
.LVL518:
.L1240:
	.cfi_restore_state
	subl	$12, %esp
	.cfi_remember_state
	.cfi_def_cfa_offset 92
	pushl	48(%esp)
	.cfi_def_cfa_offset 96
	call	__asan_report_store4
.LVL519:
.L1239:
	.cfi_restore_state
	.loc 1 1887 0
	subl	$12, %esp
	.cfi_def_cfa_offset 92
	pushl	24(%esp)
	.cfi_def_cfa_offset 96
	call	__asan_report_store4
.LVL520:
	.cfi_endproc
.LFE21:
	.size	check_throttles, .-check_throttles
	.section	.text.unlikely
.LCOLDE109:
	.text
.LHOTE109:
	.section	.text.unlikely
.LCOLDB110:
	.text
.LHOTB110:
	.p2align 4,,15
	.type	shut_down, @function
shut_down:
.LASANPC16:
.LFB16:
	.loc 1 1467 0
	.cfi_startproc
	pushl	%ebp
	.cfi_def_cfa_offset 8
	.cfi_offset 5, -8
	pushl	%edi
	.cfi_def_cfa_offset 12
	.cfi_offset 7, -12
	pushl	%esi
	.cfi_def_cfa_offset 16
	.cfi_offset 6, -16
	pushl	%ebx
	.cfi_def_cfa_offset 20
	.cfi_offset 3, -20
	subl	$124, %esp
	.cfi_def_cfa_offset 144
	movl	__asan_option_detect_stack_use_after_return, %ebx
	leal	16(%esp), %edi
	testl	%ebx, %ebx
	jne	.L1340
.L1261:
	.loc 1 1467 0
	movl	%edi, %eax
	.loc 1 1471 0
	leal	32(%edi), %ebx
	.loc 1 1467 0
	movl	$1102416563, (%edi)
	shrl	$3, %eax
	movl	$.LC15, 4(%edi)
	movl	$.LASANPC16, 8(%edi)
	.loc 1 1471 0
	subl	$8, %esp
	.cfi_def_cfa_offset 152
	.loc 1 1467 0
	movl	%eax, 16(%esp)
	movl	$-235802127, 536870912(%eax)
	movl	$-185273344, 536870916(%eax)
	movl	$-202116109, 536870920(%eax)
	.loc 1 1473 0
	xorl	%esi, %esi
	.loc 1 1471 0
	pushl	$0
	.cfi_def_cfa_offset 156
	pushl	%ebx
	.cfi_def_cfa_offset 160
	call	gettimeofday
.LVL521:
	.loc 1 1472 0
	movl	%ebx, %eax
	call	logstats
.LVL522:
	.loc 1 1473 0
	movl	max_connects, %edx
	addl	$16, %esp
	.cfi_def_cfa_offset 144
	testl	%edx, %edx
	jle	.L1275
	movl	%edi, 12(%esp)
	movl	%ebx, %edi
	jmp	.L1318
.LVL523:
	.p2align 4,,10
	.p2align 3
.L1269:
	.loc 1 1477 0
	leal	8(%edx), %eax
	movl	%eax, %ecx
	movl	%eax, 4(%esp)
	shrl	$3, %ecx
	movzbl	536870912(%ecx), %ecx
	testb	%cl, %cl
	je	.L1271
	movl	%eax, %ebp
	andl	$7, %ebp
	addl	$3, %ebp
	movl	%ebp, %eax
	cmpb	%cl, %al
	jge	.L1341
.L1271:
	movl	8(%edx), %eax
	testl	%eax, %eax
	je	.L1272
	.loc 1 1479 0
	subl	$12, %esp
	.cfi_def_cfa_offset 156
	pushl	%eax
	.cfi_def_cfa_offset 160
	call	httpd_destroy_conn
.LVL524:
	.loc 1 1480 0
	addl	connects, %ebx
	addl	$16, %esp
	.cfi_def_cfa_offset 144
	leal	8(%ebx), %ebp
	movl	%ebp, %eax
	shrl	$3, %eax
	movzbl	536870912(%eax), %eax
	testb	%al, %al
	je	.L1273
	movl	%ebp, %edx
	andl	$7, %edx
	addl	$3, %edx
	cmpb	%al, %dl
	jge	.L1342
.L1273:
	subl	$12, %esp
	.cfi_def_cfa_offset 156
	pushl	8(%ebx)
	.cfi_def_cfa_offset 160
	call	free
.LVL525:
	.loc 1 1482 0
	movl	%ebp, %eax
	.loc 1 1481 0
	subl	$1, httpd_conn_count
	.loc 1 1482 0
	addl	$16, %esp
	.cfi_def_cfa_offset 144
	shrl	$3, %eax
	movzbl	536870912(%eax), %eax
	testb	%al, %al
	je	.L1274
	movl	%ebp, %edx
	andl	$7, %edx
	addl	$3, %edx
	cmpb	%al, %dl
	jge	.L1343
.L1274:
	movl	$0, 8(%ebx)
.L1272:
	.loc 1 1473 0 discriminator 2
	addl	$1, %esi
.LVL526:
	cmpl	%esi, max_connects
	jle	.L1344
.LVL527:
.L1318:
	leal	(%esi,%esi,2), %ebx
	.loc 1 1475 0
	movl	connects, %edx
	sall	$5, %ebx
	addl	%ebx, %edx
	movl	%edx, %eax
	shrl	$3, %eax
	movzbl	536870912(%eax), %eax
	testb	%al, %al
	je	.L1268
	movl	%edx, %ecx
	andl	$7, %ecx
	addl	$3, %ecx
	cmpb	%al, %cl
	jge	.L1345
.L1268:
	movl	(%edx), %eax
	testl	%eax, %eax
	je	.L1269
	.loc 1 1476 0
	leal	8(%edx), %eax
	movl	%eax, %ecx
	movl	%eax, 4(%esp)
	shrl	$3, %ecx
	movzbl	536870912(%ecx), %ecx
	testb	%cl, %cl
	je	.L1270
	movl	%eax, %ebp
	andl	$7, %ebp
	addl	$3, %ebp
	movl	%ebp, %eax
	cmpb	%cl, %al
	jge	.L1346
.L1270:
	subl	$8, %esp
	.cfi_def_cfa_offset 152
	pushl	%edi
	.cfi_def_cfa_offset 156
	pushl	8(%edx)
	.cfi_def_cfa_offset 160
	call	httpd_close_conn
.LVL528:
	movl	connects, %edx
	addl	$16, %esp
	.cfi_def_cfa_offset 144
	addl	%ebx, %edx
	jmp	.L1269
	.p2align 4,,10
	.p2align 3
.L1344:
	movl	12(%esp), %edi
.LVL529:
.L1275:
	.loc 1 1485 0
	movl	hs, %ebx
	testl	%ebx, %ebx
	je	.L1267
.LVL530:
.LBB2:
	.loc 1 1489 0
	leal	40(%ebx), %eax
	.loc 1 1488 0
	movl	$0, hs
	.loc 1 1489 0
	movl	%eax, %edx
	shrl	$3, %edx
	movzbl	536870912(%edx), %edx
	testb	%dl, %dl
	je	.L1276
	movl	%eax, %ecx
	andl	$7, %ecx
	addl	$3, %ecx
	cmpb	%dl, %cl
	jge	.L1347
.L1276:
	movl	40(%ebx), %eax
	cmpl	$-1, %eax
	je	.L1277
	.loc 1 1490 0
	subl	$12, %esp
	.cfi_def_cfa_offset 156
	pushl	%eax
	.cfi_def_cfa_offset 160
	call	fdwatch_del_fd
.LVL531:
	addl	$16, %esp
	.cfi_def_cfa_offset 144
.L1277:
	.loc 1 1491 0
	leal	44(%ebx), %eax
	movl	%eax, %edx
	shrl	$3, %edx
	movzbl	536870912(%edx), %edx
	testb	%dl, %dl
	je	.L1278
	movl	%eax, %ecx
	andl	$7, %ecx
	addl	$3, %ecx
	cmpb	%dl, %cl
	jge	.L1348
.L1278:
	movl	44(%ebx), %eax
	cmpl	$-1, %eax
	je	.L1279
	.loc 1 1492 0
	subl	$12, %esp
	.cfi_def_cfa_offset 156
	pushl	%eax
	.cfi_def_cfa_offset 160
	call	fdwatch_del_fd
.LVL532:
	addl	$16, %esp
	.cfi_def_cfa_offset 144
.L1279:
	.loc 1 1493 0
	subl	$12, %esp
	.cfi_def_cfa_offset 156
	pushl	%ebx
	.cfi_def_cfa_offset 160
	call	httpd_terminate
.LVL533:
	addl	$16, %esp
	.cfi_def_cfa_offset 144
.LVL534:
.L1267:
.LBE2:
	.loc 1 1495 0
	call	mmc_destroy
.LVL535:
	.loc 1 1496 0
	call	tmr_destroy
.LVL536:
	.loc 1 1497 0
	subl	$12, %esp
	.cfi_def_cfa_offset 156
	pushl	connects
	.cfi_def_cfa_offset 160
	call	free
.LVL537:
	.loc 1 1498 0
	movl	throttles, %eax
	addl	$16, %esp
	.cfi_def_cfa_offset 144
	testl	%eax, %eax
	je	.L1264
	.loc 1 1499 0
	subl	$12, %esp
	.cfi_def_cfa_offset 156
	pushl	%eax
	.cfi_def_cfa_offset 160
	call	free
.LVL538:
	addl	$16, %esp
	.cfi_def_cfa_offset 144
.L1264:
	.loc 1 1467 0
	leal	16(%esp), %eax
	cmpl	%edi, %eax
	jne	.L1349
	movl	8(%esp), %eax
	movl	$0, 536870912(%eax)
	movl	$0, 536870916(%eax)
	movl	$0, 536870920(%eax)
.L1263:
	.loc 1 1500 0
	addl	$124, %esp
	.cfi_remember_state
	.cfi_def_cfa_offset 20
	popl	%ebx
	.cfi_restore 3
	.cfi_def_cfa_offset 16
	popl	%esi
	.cfi_restore 6
	.cfi_def_cfa_offset 12
	popl	%edi
	.cfi_restore 7
	.cfi_def_cfa_offset 8
	popl	%ebp
	.cfi_restore 5
	.cfi_def_cfa_offset 4
	ret
.LVL539:
.L1348:
	.cfi_restore_state
.LBB3:
	.loc 1 1491 0
	subl	$12, %esp
	.cfi_remember_state
	.cfi_def_cfa_offset 156
	pushl	%eax
	.cfi_def_cfa_offset 160
	call	__asan_report_load4
.LVL540:
.L1347:
	.cfi_restore_state
	.loc 1 1489 0
	subl	$12, %esp
	.cfi_remember_state
	.cfi_def_cfa_offset 156
	pushl	%eax
	.cfi_def_cfa_offset 160
	call	__asan_report_load4
.LVL541:
.L1346:
	.cfi_restore_state
	movl	4(%esp), %eax
.LBE3:
	.loc 1 1476 0
	subl	$12, %esp
	.cfi_remember_state
	.cfi_def_cfa_offset 156
	pushl	%eax
	.cfi_def_cfa_offset 160
	call	__asan_report_load4
.LVL542:
.L1343:
	.cfi_restore_state
	.loc 1 1482 0
	subl	$12, %esp
	.cfi_remember_state
	.cfi_def_cfa_offset 156
	pushl	%ebp
	.cfi_def_cfa_offset 160
	call	__asan_report_store4
.LVL543:
.L1342:
	.cfi_restore_state
	.loc 1 1480 0
	subl	$12, %esp
	.cfi_remember_state
	.cfi_def_cfa_offset 156
	pushl	%ebp
	.cfi_def_cfa_offset 160
	call	__asan_report_load4
.LVL544:
.L1341:
	.cfi_restore_state
	movl	4(%esp), %eax
	.loc 1 1477 0
	subl	$12, %esp
	.cfi_remember_state
	.cfi_def_cfa_offset 156
	pushl	%eax
	.cfi_def_cfa_offset 160
	call	__asan_report_load4
.LVL545:
.L1345:
	.cfi_restore_state
	.loc 1 1475 0
	subl	$12, %esp
	.cfi_remember_state
	.cfi_def_cfa_offset 156
	pushl	%edx
	.cfi_def_cfa_offset 160
	call	__asan_report_load4
.LVL546:
.L1340:
	.cfi_restore_state
	.loc 1 1467 0
	pushl	%ecx
	.cfi_def_cfa_offset 148
	pushl	%ecx
	.cfi_def_cfa_offset 152
	pushl	%edi
	.cfi_def_cfa_offset 156
	pushl	$96
	.cfi_def_cfa_offset 160
	call	__asan_stack_malloc_1
.LVL547:
	addl	$16, %esp
	.cfi_def_cfa_offset 144
	movl	%eax, %edi
	jmp	.L1261
.L1349:
	movl	$1172321806, (%edi)
	movl	8(%esp), %eax
	movl	$-168430091, 536870912(%eax)
	movl	$-168430091, 536870916(%eax)
	movl	$-168430091, 536870920(%eax)
	jmp	.L1263
	.cfi_endproc
.LFE16:
	.size	shut_down, .-shut_down
	.section	.text.unlikely
.LCOLDE110:
	.text
.LHOTE110:
	.section	.rodata
	.align 32
.LC111:
	.string	"exiting"
	.zero	56
	.section	.text.unlikely
.LCOLDB112:
	.text
.LHOTB112:
	.p2align 4,,15
	.type	handle_usr1, @function
handle_usr1:
.LASANPC3:
.LFB3:
	.loc 1 257 0
	.cfi_startproc
.LVL548:
	.loc 1 260 0
	movl	num_connects, %edx
	testl	%edx, %edx
	je	.L1353
	.loc 1 273 0
	movl	$1, got_usr1
	ret
.L1353:
	.loc 1 257 0
	subl	$12, %esp
	.cfi_def_cfa_offset 16
	.loc 1 266 0
	call	shut_down
.LVL549:
	.loc 1 267 0
	pushl	%eax
	.cfi_def_cfa_offset 20
	pushl	%eax
	.cfi_def_cfa_offset 24
	pushl	$.LC111
	.cfi_def_cfa_offset 28
	pushl	$5
	.cfi_def_cfa_offset 32
	call	syslog
.LVL550:
	.loc 1 268 0
	call	closelog
.LVL551:
	.loc 1 269 0
	call	__asan_handle_no_return
.LVL552:
	movl	$0, (%esp)
	call	exit
.LVL553:
	.cfi_endproc
.LFE3:
	.size	handle_usr1, .-handle_usr1
	.section	.text.unlikely
.LCOLDE112:
	.text
.LHOTE112:
	.section	.rodata
	.align 32
.LC113:
	.string	"exiting due to signal %d"
	.zero	39
	.section	.text.unlikely
.LCOLDB114:
	.text
.LHOTB114:
	.p2align 4,,15
	.type	handle_term, @function
handle_term:
.LASANPC0:
.LFB0:
	.loc 1 172 0
	.cfi_startproc
.LVL554:
	subl	$12, %esp
	.cfi_def_cfa_offset 16
	.loc 1 175 0
	call	shut_down
.LVL555:
	.loc 1 176 0
	subl	$4, %esp
	.cfi_def_cfa_offset 20
	pushl	20(%esp)
	.cfi_def_cfa_offset 24
	pushl	$.LC113
	.cfi_def_cfa_offset 28
	pushl	$5
	.cfi_def_cfa_offset 32
	call	syslog
.LVL556:
	.loc 1 177 0
	call	closelog
.LVL557:
	.loc 1 178 0
	call	__asan_handle_no_return
.LVL558:
	movl	$1, (%esp)
	call	exit
.LVL559:
	.cfi_endproc
.LFE0:
	.size	handle_term, .-handle_term
	.section	.text.unlikely
.LCOLDE114:
	.text
.LHOTE114:
	.section	.text.unlikely
.LCOLDB115:
	.text
.LHOTB115:
	.p2align 4,,15
	.type	clear_throttles.isra.0, @function
clear_throttles.isra.0:
.LASANPC34:
.LFB34:
	.loc 1 1922 0
	.cfi_startproc
.LVL560:
	.loc 1 1926 0
	leal	52(%eax), %edx
	.loc 1 1922 0
	pushl	%ebp
	.cfi_def_cfa_offset 8
	.cfi_offset 5, -8
	pushl	%edi
	.cfi_def_cfa_offset 12
	.cfi_offset 7, -12
	pushl	%esi
	.cfi_def_cfa_offset 16
	.cfi_offset 6, -16
	pushl	%ebx
	.cfi_def_cfa_offset 20
	.cfi_offset 3, -20
	.loc 1 1926 0
	movl	%edx, %ecx
	shrl	$3, %ecx
	.loc 1 1922 0
	subl	$28, %esp
	.cfi_def_cfa_offset 48
	.loc 1 1926 0
	movzbl	536870912(%ecx), %ecx
	testb	%cl, %cl
	je	.L1357
	movl	%edx, %ebx
	andl	$7, %ebx
	addl	$3, %ebx
	cmpb	%cl, %bl
	jge	.L1384
.L1357:
	movl	52(%eax), %ecx
	addl	$12, %eax
.LVL561:
	movl	throttles, %ebp
	movl	%ecx, %ebx
	movl	%ecx, 8(%esp)
	xorl	%ecx, %ecx
	testl	%ebx, %ebx
	jle	.L1356
	movl	%ecx, 4(%esp)
.LVL562:
	.p2align 4,,10
	.p2align 3
.L1375:
	.loc 1 1927 0
	movl	%eax, %edx
	shrl	$3, %edx
	movzbl	536870912(%edx), %edx
	testb	%dl, %dl
	je	.L1359
	movl	%eax, %ebx
	andl	$7, %ebx
	addl	$3, %ebx
	cmpb	%dl, %bl
	jge	.L1385
.L1359:
	movl	(%eax), %edx
	leal	(%edx,%edx,2), %edx
	leal	0(%ebp,%edx,8), %edx
	leal	20(%edx), %ecx
	movl	%ecx, %esi
	movl	%ecx, %ebx
	movl	%ecx, 12(%esp)
	shrl	$3, %esi
	movzbl	536870912(%esi), %esi
	movl	%esi, %ecx
	testb	%cl, %cl
	je	.L1360
	movl	%ebx, %edi
	movl	%esi, %ebx
	andl	$7, %edi
	addl	$3, %edi
	movl	%edi, %ecx
	cmpb	%bl, %cl
	jge	.L1386
.L1360:
	.loc 1 1926 0
	addl	$1, 4(%esp)
.LVL563:
	movl	8(%esp), %esi
	addl	$4, %eax
	movl	4(%esp), %edi
.LVL564:
	.loc 1 1927 0
	subl	$1, 20(%edx)
	.loc 1 1926 0
	cmpl	%esi, %edi
	jne	.L1375
.LVL565:
.L1356:
	.loc 1 1928 0
	addl	$28, %esp
	.cfi_remember_state
	.cfi_def_cfa_offset 20
	popl	%ebx
	.cfi_restore 3
	.cfi_def_cfa_offset 16
	popl	%esi
	.cfi_restore 6
	.cfi_def_cfa_offset 12
	popl	%edi
	.cfi_restore 7
	.cfi_def_cfa_offset 8
	popl	%ebp
	.cfi_restore 5
	.cfi_def_cfa_offset 4
	ret
.LVL566:
.L1384:
	.cfi_restore_state
	.loc 1 1926 0
	subl	$12, %esp
	.cfi_remember_state
	.cfi_def_cfa_offset 60
	pushl	%edx
	.cfi_def_cfa_offset 64
	call	__asan_report_load4
.LVL567:
.L1386:
	.cfi_restore_state
	movl	12(%esp), %ebx
	.loc 1 1927 0
	subl	$12, %esp
	.cfi_remember_state
	.cfi_def_cfa_offset 60
	pushl	%ebx
	.cfi_def_cfa_offset 64
	call	__asan_report_load4
.LVL568:
.L1385:
	.cfi_restore_state
	subl	$12, %esp
	.cfi_def_cfa_offset 60
	pushl	%eax
	.cfi_def_cfa_offset 64
	call	__asan_report_load4
.LVL569:
	.cfi_endproc
.LFE34:
	.size	clear_throttles.isra.0, .-clear_throttles.isra.0
	.section	.text.unlikely
.LCOLDE115:
	.text
.LHOTE115:
	.section	.text.unlikely
.LCOLDB116:
	.text
.LHOTB116:
	.p2align 4,,15
	.type	really_clear_connection, @function
really_clear_connection:
.LASANPC26:
.LFB26:
	.loc 1 2048 0
	.cfi_startproc
.LVL570:
	pushl	%ebp
	.cfi_def_cfa_offset 8
	.cfi_offset 5, -8
	pushl	%edi
	.cfi_def_cfa_offset 12
	.cfi_offset 7, -12
	movl	%edx, %edi
	pushl	%esi
	.cfi_def_cfa_offset 16
	.cfi_offset 6, -16
	.loc 1 2049 0
	leal	8(%eax), %esi
	.loc 1 2048 0
	pushl	%ebx
	.cfi_def_cfa_offset 20
	.cfi_offset 3, -20
	movl	%eax, %ebx
	.loc 1 2049 0
	movl	%esi, %eax
.LVL571:
	.loc 1 2048 0
	subl	$28, %esp
	.cfi_def_cfa_offset 48
	.loc 1 2049 0
	shrl	$3, %eax
	movzbl	536870912(%eax), %eax
	testb	%al, %al
	je	.L1388
	movl	%esi, %edx
.LVL572:
	andl	$7, %edx
	addl	$3, %edx
	cmpb	%al, %dl
	jge	.L1457
.L1388:
	movl	8(%ebx), %eax
	leal	168(%eax), %ecx
	movl	%ecx, %edx
	movl	%ecx, 12(%esp)
	shrl	$3, %edx
	movzbl	536870912(%edx), %edx
	testb	%dl, %dl
	je	.L1389
	movl	%ecx, %ebp
	andl	$7, %ebp
	addl	$3, %ebp
	movl	%ebp, %ecx
	cmpb	%dl, %cl
	jge	.L1458
.L1389:
	movl	168(%eax), %edx
	addl	%edx, stats_bytes
	.loc 1 2050 0
	movl	%ebx, %edx
	shrl	$3, %edx
	movzbl	536870912(%edx), %ecx
	testb	%cl, %cl
	je	.L1390
	movl	%ebx, %edx
	andl	$7, %edx
	addl	$3, %edx
	cmpb	%cl, %dl
	jge	.L1459
.L1390:
	cmpl	$3, (%ebx)
	je	.L1391
	.loc 1 2051 0
	leal	448(%eax), %ecx
	movl	%ecx, %edx
	movl	%ecx, 12(%esp)
	shrl	$3, %ecx
	movzbl	536870912(%ecx), %ecx
	testb	%cl, %cl
	je	.L1392
	movl	%edx, %ebp
	andl	$7, %ebp
	addl	$3, %ebp
	movl	%ebp, %edx
	cmpb	%cl, %dl
	jge	.L1460
.L1392:
	subl	$12, %esp
	.cfi_def_cfa_offset 60
	pushl	448(%eax)
	.cfi_def_cfa_offset 64
	call	fdwatch_del_fd
.LVL573:
	movl	%esi, %eax
	addl	$16, %esp
	.cfi_def_cfa_offset 48
	shrl	$3, %eax
	movzbl	536870912(%eax), %eax
	testb	%al, %al
	je	.L1393
	movl	%esi, %edx
	andl	$7, %edx
	addl	$3, %edx
	cmpb	%al, %dl
	jge	.L1461
.L1393:
	movl	8(%ebx), %eax
.L1391:
	.loc 1 2052 0
	subl	$8, %esp
	.cfi_def_cfa_offset 56
	.loc 1 2054 0
	leal	76(%ebx), %esi
	.loc 1 2052 0
	pushl	%edi
	.cfi_def_cfa_offset 60
	pushl	%eax
	.cfi_def_cfa_offset 64
	call	httpd_close_conn
.LVL574:
	.loc 1 2053 0
	movl	%ebx, %eax
	call	clear_throttles.isra.0
.LVL575:
	.loc 1 2054 0
	movl	%esi, %eax
	addl	$16, %esp
	.cfi_def_cfa_offset 48
	shrl	$3, %eax
	movzbl	536870912(%eax), %eax
	testb	%al, %al
	je	.L1394
	movl	%esi, %edx
	andl	$7, %edx
	addl	$3, %edx
	cmpb	%al, %dl
	jge	.L1462
.L1394:
	movl	76(%ebx), %eax
	testl	%eax, %eax
	je	.L1395
	.loc 1 2056 0
	subl	$12, %esp
	.cfi_def_cfa_offset 60
	pushl	%eax
	.cfi_def_cfa_offset 64
	call	tmr_cancel
.LVL576:
	.loc 1 2057 0
	movl	%esi, %eax
	addl	$16, %esp
	.cfi_def_cfa_offset 48
	shrl	$3, %eax
	movzbl	536870912(%eax), %eax
	testb	%al, %al
	je	.L1396
	movl	%esi, %edx
	andl	$7, %edx
	addl	$3, %edx
	cmpb	%al, %dl
	jge	.L1463
.L1396:
	movl	$0, 76(%ebx)
.L1395:
	.loc 1 2059 0
	movl	%ebx, %eax
	shrl	$3, %eax
	movzbl	536870912(%eax), %eax
	testb	%al, %al
	je	.L1397
	movl	%ebx, %edx
	andl	$7, %edx
	addl	$3, %edx
	cmpb	%al, %dl
	jge	.L1464
.L1397:
	.loc 1 2060 0
	leal	4(%ebx), %eax
	.loc 1 2059 0
	movl	$0, (%ebx)
	.loc 1 2060 0
	movl	first_free_connect, %edi
.LVL577:
	movl	%eax, %edx
	shrl	$3, %edx
	movzbl	536870912(%edx), %edx
	testb	%dl, %dl
	je	.L1398
	movl	%eax, %esi
	andl	$7, %esi
	addl	$3, %esi
	movl	%esi, %ecx
	cmpb	%dl, %cl
	jge	.L1465
.L1398:
	movl	%edi, 4(%ebx)
	.loc 1 2061 0
	subl	connects, %ebx
.LVL578:
	.loc 1 2062 0
	subl	$1, num_connects
	.loc 1 2061 0
	sarl	$5, %ebx
	imull	$-1431655765, %ebx, %ebx
	movl	%ebx, first_free_connect
	.loc 1 2063 0
	addl	$28, %esp
	.cfi_remember_state
	.cfi_def_cfa_offset 20
	popl	%ebx
	.cfi_restore 3
	.cfi_def_cfa_offset 16
	popl	%esi
	.cfi_restore 6
	.cfi_def_cfa_offset 12
	popl	%edi
	.cfi_restore 7
	.cfi_def_cfa_offset 8
	popl	%ebp
	.cfi_restore 5
	.cfi_def_cfa_offset 4
	ret
.LVL579:
.L1462:
	.cfi_restore_state
	.loc 1 2054 0
	subl	$12, %esp
	.cfi_remember_state
	.cfi_def_cfa_offset 60
	pushl	%esi
	.cfi_def_cfa_offset 64
	call	__asan_report_load4
.LVL580:
.L1459:
	.cfi_restore_state
	.loc 1 2050 0
	subl	$12, %esp
	.cfi_remember_state
	.cfi_def_cfa_offset 60
	pushl	%ebx
	.cfi_def_cfa_offset 64
	call	__asan_report_load4
.LVL581:
.L1458:
	.cfi_restore_state
	.loc 1 2049 0
	subl	$12, %esp
	.cfi_remember_state
	.cfi_def_cfa_offset 60
	pushl	24(%esp)
	.cfi_def_cfa_offset 64
	call	__asan_report_load4
.LVL582:
.L1457:
	.cfi_restore_state
	subl	$12, %esp
	.cfi_remember_state
	.cfi_def_cfa_offset 60
	pushl	%esi
	.cfi_def_cfa_offset 64
	call	__asan_report_load4
.LVL583:
.L1465:
	.cfi_restore_state
	.loc 1 2060 0
	subl	$12, %esp
	.cfi_remember_state
	.cfi_def_cfa_offset 60
	pushl	%eax
	.cfi_def_cfa_offset 64
	call	__asan_report_store4
.LVL584:
.L1464:
	.cfi_restore_state
	.loc 1 2059 0
	subl	$12, %esp
	.cfi_remember_state
	.cfi_def_cfa_offset 60
	pushl	%ebx
	.cfi_def_cfa_offset 64
	call	__asan_report_store4
.LVL585:
.L1463:
	.cfi_restore_state
	.loc 1 2057 0
	subl	$12, %esp
	.cfi_remember_state
	.cfi_def_cfa_offset 60
	pushl	%esi
	.cfi_def_cfa_offset 64
	call	__asan_report_store4
.LVL586:
.L1461:
	.cfi_restore_state
	subl	$12, %esp
	.cfi_remember_state
	.cfi_def_cfa_offset 60
	pushl	%esi
	.cfi_def_cfa_offset 64
	call	__asan_report_load4
.LVL587:
.L1460:
	.cfi_restore_state
	.loc 1 2051 0
	subl	$12, %esp
	.cfi_def_cfa_offset 60
	pushl	24(%esp)
	.cfi_def_cfa_offset 64
	call	__asan_report_load4
.LVL588:
	.cfi_endproc
.LFE26:
	.size	really_clear_connection, .-really_clear_connection
	.section	.text.unlikely
.LCOLDE116:
	.text
.LHOTE116:
	.section	.rodata
	.align 32
.LC117:
	.string	"replacing non-null linger_timer!"
	.zero	63
	.align 32
.LC118:
	.string	"tmr_create(linger_clear_connection) failed"
	.zero	53
	.section	.text.unlikely
.LCOLDB119:
	.text
.LHOTB119:
	.p2align 4,,15
	.type	clear_connection, @function
clear_connection:
.LASANPC25:
.LFB25:
	.loc 1 1996 0
	.cfi_startproc
.LVL589:
	pushl	%ebp
	.cfi_def_cfa_offset 8
	.cfi_offset 5, -8
	pushl	%edi
	.cfi_def_cfa_offset 12
	.cfi_offset 7, -12
	movl	%edx, %edi
	pushl	%esi
	.cfi_def_cfa_offset 16
	.cfi_offset 6, -16
	.loc 1 1999 0
	leal	72(%eax), %esi
	.loc 1 1996 0
	pushl	%ebx
	.cfi_def_cfa_offset 20
	.cfi_offset 3, -20
	movl	%eax, %ebx
	.loc 1 1999 0
	movl	%esi, %eax
.LVL590:
	.loc 1 1996 0
	subl	$28, %esp
	.cfi_def_cfa_offset 48
	.loc 1 1999 0
	shrl	$3, %eax
	movzbl	536870912(%eax), %eax
	testb	%al, %al
	je	.L1467
	movl	%esi, %edx
.LVL591:
	andl	$7, %edx
	addl	$3, %edx
	cmpb	%al, %dl
	jge	.L1604
.L1467:
	movl	72(%ebx), %eax
	testl	%eax, %eax
	je	.L1468
	.loc 1 2001 0
	subl	$12, %esp
	.cfi_def_cfa_offset 60
	pushl	%eax
	.cfi_def_cfa_offset 64
	call	tmr_cancel
.LVL592:
	.loc 1 2002 0
	movl	%esi, %eax
	addl	$16, %esp
	.cfi_def_cfa_offset 48
	shrl	$3, %eax
	movzbl	536870912(%eax), %eax
	testb	%al, %al
	je	.L1469
	movl	%esi, %edx
	andl	$7, %edx
	addl	$3, %edx
	cmpb	%al, %dl
	jge	.L1605
.L1469:
	movl	$0, 72(%ebx)
.L1468:
	.loc 1 2016 0
	movl	%ebx, %eax
	shrl	$3, %eax
	movzbl	536870912(%eax), %eax
	testb	%al, %al
	je	.L1470
	movl	%ebx, %edx
	andl	$7, %edx
	addl	$3, %edx
	cmpb	%al, %dl
	jge	.L1606
.L1470:
	cmpl	$4, (%ebx)
	je	.L1471
	leal	8(%ebx), %esi
	movl	%esi, %eax
	shrl	$3, %eax
	movzbl	536870912(%eax), %eax
	testb	%al, %al
	je	.L1472
	movl	%esi, %edx
	andl	$7, %edx
	addl	$3, %edx
	cmpb	%al, %dl
	jge	.L1607
.L1472:
	movl	8(%ebx), %eax
	leal	356(%eax), %ecx
	movl	%ecx, %edx
	movl	%ecx, 12(%esp)
	shrl	$3, %ecx
	movzbl	536870912(%ecx), %ecx
	testb	%cl, %cl
	je	.L1473
	movl	%edx, %ebp
	andl	$7, %ebp
	addl	$3, %ebp
	movl	%ebp, %edx
	cmpb	%cl, %dl
	jge	.L1608
.L1473:
	.loc 1 2023 0
	movl	356(%eax), %ecx
	testl	%ecx, %ecx
	je	.L1475
	.loc 1 2025 0
	movl	%ebx, %edx
	shrl	$3, %edx
	movzbl	536870912(%edx), %edx
	testb	%dl, %dl
	je	.L1480
	movl	%ebx, %ecx
	andl	$7, %ecx
	addl	$3, %ecx
	cmpb	%dl, %cl
	jge	.L1609
.L1480:
	cmpl	$3, (%ebx)
	je	.L1481
	.loc 1 2026 0
	leal	448(%eax), %ecx
	movl	%ecx, %edx
	movl	%ecx, 12(%esp)
	shrl	$3, %ecx
	movzbl	536870912(%ecx), %ecx
	testb	%cl, %cl
	je	.L1482
	movl	%edx, %ebp
	andl	$7, %ebp
	addl	$3, %ebp
	movl	%ebp, %edx
	cmpb	%cl, %dl
	jge	.L1610
.L1482:
	subl	$12, %esp
	.cfi_def_cfa_offset 60
	pushl	448(%eax)
	.cfi_def_cfa_offset 64
	call	fdwatch_del_fd
.LVL593:
	movl	%esi, %eax
	addl	$16, %esp
	.cfi_def_cfa_offset 48
	shrl	$3, %eax
	movzbl	536870912(%eax), %eax
	testb	%al, %al
	je	.L1483
	movl	%esi, %edx
	andl	$7, %edx
	addl	$3, %edx
	cmpb	%al, %dl
	jge	.L1611
.L1483:
	movl	8(%ebx), %eax
.L1481:
	.loc 1 2027 0
	movl	%ebx, %edx
	shrl	$3, %edx
	movzbl	536870912(%edx), %edx
	testb	%dl, %dl
	je	.L1484
	movl	%ebx, %ecx
	andl	$7, %ecx
	addl	$3, %ecx
	cmpb	%dl, %cl
	jge	.L1612
.L1484:
	.loc 1 2028 0
	leal	448(%eax), %ecx
	.loc 1 2027 0
	movl	$4, (%ebx)
	.loc 1 2028 0
	movl	%ecx, %edx
	movl	%ecx, 12(%esp)
	shrl	$3, %ecx
	movzbl	536870912(%ecx), %ecx
	testb	%cl, %cl
	je	.L1485
	movl	%edx, %ebp
	andl	$7, %ebp
	addl	$3, %ebp
	movl	%ebp, %edx
	cmpb	%cl, %dl
	jge	.L1613
.L1485:
	subl	$8, %esp
	.cfi_def_cfa_offset 56
	pushl	$1
	.cfi_def_cfa_offset 60
	pushl	448(%eax)
	.cfi_def_cfa_offset 64
	call	shutdown
.LVL594:
	.loc 1 2029 0
	movl	%esi, %eax
	addl	$16, %esp
	.cfi_def_cfa_offset 48
	shrl	$3, %eax
	movzbl	536870912(%eax), %eax
	testb	%al, %al
	je	.L1486
	movl	%esi, %edx
	andl	$7, %edx
	addl	$3, %edx
	cmpb	%al, %dl
	jge	.L1614
.L1486:
	movl	8(%ebx), %eax
	leal	448(%eax), %ebp
	movl	%ebp, %ecx
	shrl	$3, %ecx
	movzbl	536870912(%ecx), %ecx
	testb	%cl, %cl
	je	.L1487
	movl	%ebp, %esi
	andl	$7, %esi
	addl	$3, %esi
	movl	%esi, %edx
	cmpb	%cl, %dl
	jge	.L1615
.L1487:
	subl	$4, %esp
	.cfi_def_cfa_offset 52
	.loc 1 2031 0
	leal	76(%ebx), %esi
	.loc 1 2029 0
	pushl	$0
	.cfi_def_cfa_offset 56
	pushl	%ebx
	.cfi_def_cfa_offset 60
	pushl	448(%eax)
	.cfi_def_cfa_offset 64
	call	fdwatch_add_fd
.LVL595:
	.loc 1 2031 0
	movl	%esi, %eax
	addl	$16, %esp
	.cfi_def_cfa_offset 48
	shrl	$3, %eax
	movzbl	536870912(%eax), %eax
	testb	%al, %al
	je	.L1488
	movl	%esi, %edx
	andl	$7, %edx
	addl	$3, %edx
	cmpb	%al, %dl
	jge	.L1616
.L1488:
	movl	76(%ebx), %edx
	testl	%edx, %edx
	je	.L1489
	.loc 1 2032 0
	subl	$8, %esp
	.cfi_def_cfa_offset 56
	pushl	$.LC117
	.cfi_def_cfa_offset 60
	pushl	$3
	.cfi_def_cfa_offset 64
	call	syslog
.LVL596:
	addl	$16, %esp
	.cfi_def_cfa_offset 48
.L1489:
	.loc 1 2033 0
	subl	$12, %esp
	.cfi_def_cfa_offset 60
	pushl	$0
	.cfi_def_cfa_offset 64
	pushl	$500
	.cfi_def_cfa_offset 68
	pushl	%ebx
	.cfi_def_cfa_offset 72
	pushl	$linger_clear_connection
	.cfi_def_cfa_offset 76
	pushl	%edi
	.cfi_def_cfa_offset 80
	call	tmr_create
.LVL597:
	movl	%esi, %edx
	addl	$32, %esp
	.cfi_def_cfa_offset 48
	shrl	$3, %edx
	movzbl	536870912(%edx), %edx
	testb	%dl, %dl
	je	.L1490
	movl	%esi, %ecx
	andl	$7, %ecx
	addl	$3, %ecx
	cmpb	%dl, %cl
	jge	.L1617
.L1490:
	.loc 1 2035 0
	testl	%eax, %eax
	.loc 1 2033 0
	movl	%eax, 76(%ebx)
	.loc 1 2035 0
	je	.L1618
	.loc 1 2043 0
	addl	$28, %esp
	.cfi_remember_state
	.cfi_def_cfa_offset 20
	popl	%ebx
	.cfi_restore 3
	.cfi_def_cfa_offset 16
.LVL598:
	popl	%esi
	.cfi_restore 6
	.cfi_def_cfa_offset 12
.LVL599:
	popl	%edi
	.cfi_restore 7
	.cfi_def_cfa_offset 8
.LVL600:
	popl	%ebp
	.cfi_restore 5
	.cfi_def_cfa_offset 4
	ret
.LVL601:
	.p2align 4,,10
	.p2align 3
.L1471:
	.cfi_restore_state
	.loc 1 2019 0
	leal	76(%ebx), %esi
	movl	%esi, %eax
	shrl	$3, %eax
	movzbl	536870912(%eax), %eax
	testb	%al, %al
	je	.L1476
	movl	%esi, %edx
	andl	$7, %edx
	addl	$3, %edx
	cmpb	%al, %dl
	jge	.L1619
.L1476:
	subl	$12, %esp
	.cfi_def_cfa_offset 60
	pushl	76(%ebx)
	.cfi_def_cfa_offset 64
	call	tmr_cancel
.LVL602:
	.loc 1 2020 0
	movl	%esi, %eax
	addl	$16, %esp
	.cfi_def_cfa_offset 48
	shrl	$3, %eax
	movzbl	536870912(%eax), %eax
	testb	%al, %al
	je	.L1477
	movl	%esi, %edx
	andl	$7, %edx
	addl	$3, %edx
	cmpb	%al, %dl
	jge	.L1620
.L1477:
	.loc 1 2021 0
	leal	8(%ebx), %eax
	.loc 1 2020 0
	movl	$0, 76(%ebx)
	.loc 1 2021 0
	movl	%eax, %edx
	shrl	$3, %edx
	movzbl	536870912(%edx), %edx
	testb	%dl, %dl
	je	.L1478
	movl	%eax, %ecx
	andl	$7, %ecx
	addl	$3, %ecx
	cmpb	%dl, %cl
	jge	.L1621
.L1478:
	movl	8(%ebx), %eax
	leal	356(%eax), %ebp
	movl	%ebp, %ecx
	shrl	$3, %ecx
	movzbl	536870912(%ecx), %ecx
	testb	%cl, %cl
	je	.L1479
	movl	%ebp, %esi
	andl	$7, %esi
	addl	$3, %esi
	movl	%esi, %edx
	cmpb	%cl, %dl
	jge	.L1622
.L1479:
	movl	$0, 356(%eax)
.L1475:
	.loc 1 2043 0
	addl	$28, %esp
	.cfi_remember_state
	.cfi_def_cfa_offset 20
	.loc 1 2042 0
	movl	%edi, %edx
	movl	%ebx, %eax
	.loc 1 2043 0
	popl	%ebx
	.cfi_restore 3
	.cfi_def_cfa_offset 16
.LVL603:
	popl	%esi
	.cfi_restore 6
	.cfi_def_cfa_offset 12
	popl	%edi
	.cfi_restore 7
	.cfi_def_cfa_offset 8
.LVL604:
	popl	%ebp
	.cfi_restore 5
	.cfi_def_cfa_offset 4
	.loc 1 2042 0
	jmp	really_clear_connection
.LVL605:
.L1604:
	.cfi_restore_state
	.loc 1 1999 0
	subl	$12, %esp
	.cfi_remember_state
	.cfi_def_cfa_offset 60
	pushl	%esi
	.cfi_def_cfa_offset 64
	call	__asan_report_load4
.LVL606:
.L1606:
	.cfi_restore_state
	.loc 1 2016 0
	subl	$12, %esp
	.cfi_remember_state
	.cfi_def_cfa_offset 60
	pushl	%ebx
	.cfi_def_cfa_offset 64
	call	__asan_report_load4
.LVL607:
.L1615:
	.cfi_restore_state
	.loc 1 2029 0
	subl	$12, %esp
	.cfi_remember_state
	.cfi_def_cfa_offset 60
	pushl	%ebp
	.cfi_def_cfa_offset 64
	call	__asan_report_load4
.LVL608:
.L1609:
	.cfi_restore_state
	.loc 1 2025 0
	subl	$12, %esp
	.cfi_remember_state
	.cfi_def_cfa_offset 60
	pushl	%ebx
	.cfi_def_cfa_offset 64
	call	__asan_report_load4
.LVL609:
.L1616:
	.cfi_restore_state
	.loc 1 2031 0
	subl	$12, %esp
	.cfi_remember_state
	.cfi_def_cfa_offset 60
	pushl	%esi
	.cfi_def_cfa_offset 64
	call	__asan_report_load4
.LVL610:
.L1605:
	.cfi_restore_state
	.loc 1 2002 0
	subl	$12, %esp
	.cfi_remember_state
	.cfi_def_cfa_offset 60
	pushl	%esi
	.cfi_def_cfa_offset 64
	call	__asan_report_store4
.LVL611:
.L1614:
	.cfi_restore_state
	.loc 1 2029 0
	subl	$12, %esp
	.cfi_remember_state
	.cfi_def_cfa_offset 60
	pushl	%esi
	.cfi_def_cfa_offset 64
	call	__asan_report_load4
.LVL612:
.L1613:
	.cfi_restore_state
	.loc 1 2028 0
	subl	$12, %esp
	.cfi_remember_state
	.cfi_def_cfa_offset 60
	pushl	24(%esp)
	.cfi_def_cfa_offset 64
	call	__asan_report_load4
.LVL613:
.L1617:
	.cfi_restore_state
	.loc 1 2033 0
	subl	$12, %esp
	.cfi_remember_state
	.cfi_def_cfa_offset 60
	pushl	%esi
	.cfi_def_cfa_offset 64
	call	__asan_report_store4
.LVL614:
.L1608:
	.cfi_restore_state
	subl	$12, %esp
	.cfi_remember_state
	.cfi_def_cfa_offset 60
	pushl	24(%esp)
	.cfi_def_cfa_offset 64
	call	__asan_report_load4
.LVL615:
.L1607:
	.cfi_restore_state
	subl	$12, %esp
	.cfi_remember_state
	.cfi_def_cfa_offset 60
	pushl	%esi
	.cfi_def_cfa_offset 64
	call	__asan_report_load4
.LVL616:
.L1612:
	.cfi_restore_state
	.loc 1 2027 0
	subl	$12, %esp
	.cfi_remember_state
	.cfi_def_cfa_offset 60
	pushl	%ebx
	.cfi_def_cfa_offset 64
	call	__asan_report_store4
.LVL617:
.L1610:
	.cfi_restore_state
	.loc 1 2026 0
	subl	$12, %esp
	.cfi_remember_state
	.cfi_def_cfa_offset 60
	pushl	24(%esp)
	.cfi_def_cfa_offset 64
	call	__asan_report_load4
.LVL618:
.L1611:
	.cfi_restore_state
	subl	$12, %esp
	.cfi_remember_state
	.cfi_def_cfa_offset 60
	pushl	%esi
	.cfi_def_cfa_offset 64
	call	__asan_report_load4
.LVL619:
.L1618:
	.cfi_restore_state
	.loc 1 2037 0
	pushl	%eax
	.cfi_remember_state
	.cfi_def_cfa_offset 52
	pushl	%eax
	.cfi_def_cfa_offset 56
	pushl	$.LC118
	.cfi_def_cfa_offset 60
	pushl	$2
	.cfi_def_cfa_offset 64
	call	syslog
.LVL620:
	.loc 1 2038 0
	call	__asan_handle_no_return
.LVL621:
	movl	$1, (%esp)
	call	exit
.LVL622:
.L1619:
	.cfi_restore_state
	.loc 1 2019 0
	subl	$12, %esp
	.cfi_remember_state
	.cfi_def_cfa_offset 60
	pushl	%esi
	.cfi_def_cfa_offset 64
	call	__asan_report_load4
.LVL623:
.L1622:
	.cfi_restore_state
	.loc 1 2021 0
	subl	$12, %esp
	.cfi_remember_state
	.cfi_def_cfa_offset 60
	pushl	%ebp
	.cfi_def_cfa_offset 64
	call	__asan_report_store4
.LVL624:
.L1621:
	.cfi_restore_state
	subl	$12, %esp
	.cfi_remember_state
	.cfi_def_cfa_offset 60
	pushl	%eax
	.cfi_def_cfa_offset 64
	call	__asan_report_load4
.LVL625:
.L1620:
	.cfi_restore_state
	.loc 1 2020 0
	subl	$12, %esp
	.cfi_def_cfa_offset 60
	pushl	%esi
	.cfi_def_cfa_offset 64
	call	__asan_report_store4
.LVL626:
	.cfi_endproc
.LFE25:
	.size	clear_connection, .-clear_connection
	.section	.text.unlikely
.LCOLDE119:
	.text
.LHOTE119:
	.section	.text.unlikely
.LCOLDB120:
	.text
.LHOTB120:
	.p2align 4,,15
	.type	finish_connection, @function
finish_connection:
.LASANPC24:
.LFB24:
	.loc 1 1985 0
	.cfi_startproc
.LVL627:
	pushl	%esi
	.cfi_def_cfa_offset 8
	.cfi_offset 6, -8
	pushl	%ebx
	.cfi_def_cfa_offset 12
	.cfi_offset 3, -12
	movl	%eax, %ebx
	.loc 1 1987 0
	leal	8(%eax), %eax
.LVL628:
	.loc 1 1985 0
	movl	%edx, %esi
	subl	$4, %esp
	.cfi_def_cfa_offset 16
	.loc 1 1987 0
	movl	%eax, %edx
.LVL629:
	shrl	$3, %edx
	movzbl	536870912(%edx), %ecx
	testb	%cl, %cl
	je	.L1624
	movl	%eax, %edx
	andl	$7, %edx
	addl	$3, %edx
	cmpb	%cl, %dl
	jge	.L1632
.L1624:
	subl	$12, %esp
	.cfi_def_cfa_offset 28
	pushl	8(%ebx)
	.cfi_def_cfa_offset 32
	call	httpd_write_response
.LVL630:
	.loc 1 1991 0
	addl	$20, %esp
	.cfi_def_cfa_offset 12
	.loc 1 1990 0
	movl	%esi, %edx
	movl	%ebx, %eax
	.loc 1 1991 0
	popl	%ebx
	.cfi_restore 3
	.cfi_def_cfa_offset 8
.LVL631:
	popl	%esi
	.cfi_restore 6
	.cfi_def_cfa_offset 4
.LVL632:
	.loc 1 1990 0
	jmp	clear_connection
.LVL633:
.L1632:
	.cfi_def_cfa_offset 16
	.cfi_offset 3, -12
	.cfi_offset 6, -8
	.loc 1 1987 0
	subl	$12, %esp
	.cfi_def_cfa_offset 28
	pushl	%eax
	.cfi_def_cfa_offset 32
	call	__asan_report_load4
.LVL634:
	.cfi_endproc
.LFE24:
	.size	finish_connection, .-finish_connection
	.section	.text.unlikely
.LCOLDE120:
	.text
.LHOTE120:
	.section	.text.unlikely
.LCOLDB121:
	.text
.LHOTB121:
	.p2align 4,,15
	.type	handle_read, @function
handle_read:
.LASANPC18:
.LFB18:
	.loc 1 1586 0
	.cfi_startproc
.LVL635:
	pushl	%ebp
	.cfi_def_cfa_offset 8
	.cfi_offset 5, -8
	pushl	%edi
	.cfi_def_cfa_offset 12
	.cfi_offset 7, -12
	movl	%eax, %edi
	pushl	%esi
	.cfi_def_cfa_offset 16
	.cfi_offset 6, -16
	pushl	%ebx
	.cfi_def_cfa_offset 20
	.cfi_offset 3, -20
	.loc 1 1589 0
	leal	8(%eax), %eax
.LVL636:
	.loc 1 1586 0
	subl	$44, %esp
	.cfi_def_cfa_offset 64
	.loc 1 1586 0
	movl	%edx, 12(%esp)
	.loc 1 1589 0
	movl	%eax, %edx
.LVL637:
	shrl	$3, %edx
	movzbl	536870912(%edx), %edx
	testb	%dl, %dl
	je	.L1634
	movl	%eax, %ecx
	andl	$7, %ecx
	addl	$3, %ecx
	cmpb	%dl, %cl
	jge	.L1977
.L1634:
	movl	8(%edi), %ebx
.LVL638:
	.loc 1 1592 0
	leal	144(%ebx), %esi
	movl	%esi, %eax
	shrl	$3, %eax
	movzbl	536870912(%eax), %eax
	testb	%al, %al
	je	.L1635
	movl	%esi, %edx
	andl	$7, %edx
	addl	$3, %edx
	cmpb	%al, %dl
	jge	.L1978
.L1635:
	leal	140(%ebx), %ebp
	movl	144(%ebx), %edx
	movl	%ebp, %eax
	shrl	$3, %eax
	movzbl	536870912(%eax), %eax
	testb	%al, %al
	je	.L1636
	movl	%ebp, %ecx
	andl	$7, %ecx
	addl	$3, %ecx
	cmpb	%al, %cl
	jge	.L1979
.L1636:
	movl	140(%ebx), %eax
	cmpl	%eax, %edx
	jb	.L1980
	.loc 1 1594 0
	cmpl	$5000, %eax
	jbe	.L1638
	.loc 1 1596 0
	movl	$httpd_err400form, %eax
	movl	%eax, %edx
	shrl	$3, %edx
	movzbl	536870912(%edx), %edx
	testb	%dl, %dl
	je	.L1639
	andl	$7, %eax
	addl	$3, %eax
	cmpb	%dl, %al
	jge	.L1981
.L1639:
	movl	$httpd_err400title, %eax
	movl	httpd_err400form, %ecx
	movl	%eax, %edx
	shrl	$3, %edx
	movzbl	536870912(%edx), %edx
	testb	%dl, %dl
	je	.L1659
	andl	$7, %eax
	addl	$3, %eax
	cmpb	%dl, %al
	jge	.L1982
.L1659:
	.loc 1 1637 0
	subl	$8, %esp
	.cfi_def_cfa_offset 72
	pushl	$.LC63
	.cfi_def_cfa_offset 76
	pushl	%ecx
	.cfi_def_cfa_offset 80
	pushl	$.LC63
	.cfi_def_cfa_offset 84
	pushl	httpd_err400title
	.cfi_def_cfa_offset 88
	pushl	$400
	.cfi_def_cfa_offset 92
.L1976:
	.loc 1 1652 0
	pushl	%ebx
	.cfi_def_cfa_offset 96
	call	httpd_send_err
.LVL639:
	.loc 1 1654 0
	movl	44(%esp), %edx
	movl	%edi, %eax
	.loc 1 1703 0
	addl	$76, %esp
	.cfi_def_cfa_offset 20
.LVL640:
.L1974:
	popl	%ebx
	.cfi_restore 3
	.cfi_def_cfa_offset 16
	popl	%esi
	.cfi_restore 6
	.cfi_def_cfa_offset 12
	popl	%edi
	.cfi_restore 7
	.cfi_def_cfa_offset 8
	popl	%ebp
	.cfi_restore 5
	.cfi_def_cfa_offset 4
.LBB4:
	.loc 1 1685 0
	jmp	finish_connection
.LVL641:
	.p2align 4,,10
	.p2align 3
.L1638:
	.cfi_def_cfa_offset 64
	.cfi_offset 3, -20
	.cfi_offset 5, -8
	.cfi_offset 6, -16
	.cfi_offset 7, -12
.LBE4:
	.loc 1 1600 0
	subl	$4, %esp
	.cfi_def_cfa_offset 68
	addl	$1000, %eax
	pushl	%eax
	.cfi_def_cfa_offset 72
	leal	136(%ebx), %eax
	pushl	%ebp
	.cfi_def_cfa_offset 76
	movl	%eax, 28(%esp)
	pushl	%eax
	.cfi_def_cfa_offset 80
	call	httpd_realloc_str
.LVL642:
	movl	%ebp, %eax
	addl	$16, %esp
	.cfi_def_cfa_offset 64
	shrl	$3, %eax
	movzbl	536870912(%eax), %eax
	testb	%al, %al
	je	.L1641
	movl	%ebp, %edx
	andl	$7, %edx
	addl	$3, %edx
	cmpb	%al, %dl
	jge	.L1983
.L1641:
	movl	%esi, %edx
	movl	140(%ebx), %eax
	shrl	$3, %edx
	movzbl	536870912(%edx), %edx
	testb	%dl, %dl
	je	.L1642
	movl	%esi, %ecx
	andl	$7, %ecx
	addl	$3, %ecx
	cmpb	%dl, %cl
	jge	.L1984
.L1642:
	movl	144(%ebx), %edx
.L1637:
	.loc 1 1606 0
	movl	16(%esp), %ebp
	.loc 1 1605 0
	subl	%edx, %eax
	movl	%eax, 20(%esp)
	.loc 1 1606 0
	movl	%ebp, %ecx
	shrl	$3, %ecx
	movzbl	536870912(%ecx), %ecx
	testb	%cl, %cl
	je	.L1643
	andl	$7, %ebp
	addl	$3, %ebp
	movl	%ebp, %eax
	cmpb	%cl, %al
	jge	.L1985
.L1643:
	.loc 1 1605 0
	leal	448(%ebx), %ebp
	addl	136(%ebx), %edx
	movl	%ebp, %ecx
	shrl	$3, %ecx
	movzbl	536870912(%ecx), %ecx
	testb	%cl, %cl
	je	.L1644
	movl	%ebp, %eax
	andl	$7, %eax
	addl	$3, %eax
	cmpb	%cl, %al
	jge	.L1986
.L1644:
	subl	$4, %esp
	.cfi_def_cfa_offset 68
	pushl	24(%esp)
	.cfi_def_cfa_offset 72
	pushl	%edx
	.cfi_def_cfa_offset 76
	pushl	448(%ebx)
	.cfi_def_cfa_offset 80
	call	read
.LVL643:
	.loc 1 1608 0
	addl	$16, %esp
	.cfi_def_cfa_offset 64
	testl	%eax, %eax
	je	.L1987
	.loc 1 1614 0
	js	.L1988
	.loc 1 1628 0
	movl	%esi, %edx
	shrl	$3, %edx
	movzbl	536870912(%edx), %edx
	testb	%dl, %dl
	je	.L1653
	movl	%esi, %ecx
	andl	$7, %ecx
	addl	$3, %ecx
	cmpb	%dl, %cl
	jge	.L1989
.L1653:
	.loc 1 1629 0
	movl	12(%esp), %edx
	.loc 1 1628 0
	addl	%eax, 144(%ebx)
	.loc 1 1629 0
	movl	%edx, %eax
.LVL644:
	shrl	$3, %eax
	movzbl	536870912(%eax), %eax
	testb	%al, %al
	je	.L1654
	andl	$7, %edx
	addl	$3, %edx
	cmpb	%al, %dl
	jge	.L1990
.L1654:
	movl	12(%esp), %eax
	movl	(%eax), %eax
	movl	%eax, 16(%esp)
	leal	68(%edi), %eax
	movl	%eax, %edx
	shrl	$3, %edx
	movzbl	536870912(%edx), %edx
	testb	%dl, %dl
	je	.L1655
	movl	%eax, %esi
	andl	$7, %esi
	addl	$3, %esi
	movl	%esi, %ecx
	cmpb	%dl, %cl
	jge	.L1991
.L1655:
	movl	16(%esp), %eax
	.loc 1 1632 0
	subl	$12, %esp
	.cfi_remember_state
	.cfi_def_cfa_offset 76
	.loc 1 1629 0
	movl	%eax, 68(%edi)
	.loc 1 1632 0
	pushl	%ebx
	.cfi_def_cfa_offset 80
	call	httpd_got_request
.LVL645:
	addl	$16, %esp
	.cfi_def_cfa_offset 64
	testl	%eax, %eax
	je	.L1633
	cmpl	$2, %eax
	jne	.L1972
	.loc 1 1637 0
	movl	$httpd_err400form, %eax
	movl	%eax, %edx
	shrl	$3, %edx
	movzbl	536870912(%edx), %edx
	testb	%dl, %dl
	je	.L1658
	andl	$7, %eax
	addl	$3, %eax
	cmpb	%dl, %al
	jl	.L1658
	subl	$12, %esp
	.cfi_def_cfa_offset 76
	pushl	$httpd_err400form
	.cfi_def_cfa_offset 80
	call	__asan_report_load4
.LVL646:
	.p2align 4,,10
	.p2align 3
.L2010:
	.cfi_restore_state
	.loc 1 1696 0
	movl	%edi, %eax
	shrl	$3, %eax
	movzbl	536870912(%eax), %eax
	testb	%al, %al
	je	.L1690
	movl	%edi, %edx
	andl	$7, %edx
	addl	$3, %edx
	cmpb	%al, %dl
	jge	.L1992
.L1690:
	.loc 1 1697 0
	movl	12(%esp), %edx
	.loc 1 1696 0
	movl	$2, (%edi)
	.loc 1 1697 0
	movl	%edx, %eax
	shrl	$3, %eax
	movzbl	536870912(%eax), %eax
	testb	%al, %al
	je	.L1691
	andl	$7, %edx
	addl	$3, %edx
	cmpb	%al, %dl
	jge	.L1993
.L1691:
	movl	12(%esp), %eax
	movl	(%eax), %eax
	movl	%eax, 12(%esp)
.LVL647:
	leal	64(%edi), %eax
	movl	%eax, %edx
	shrl	$3, %edx
	movzbl	536870912(%edx), %edx
	testb	%dl, %dl
	je	.L1692
	movl	%eax, %esi
	andl	$7, %esi
	addl	$3, %esi
	movl	%esi, %ecx
	cmpb	%dl, %cl
	jge	.L1994
.L1692:
	movl	12(%esp), %eax
	movl	%eax, 64(%edi)
	.loc 1 1698 0
	leal	80(%edi), %eax
	movl	%eax, %edx
	shrl	$3, %edx
	movzbl	536870912(%edx), %edx
	testb	%dl, %dl
	je	.L1693
	movl	%eax, %ecx
	andl	$7, %ecx
	addl	$3, %ecx
	cmpb	%dl, %cl
	jge	.L1995
.L1693:
	.loc 1 1701 0
	movl	%ebp, %eax
	.loc 1 1698 0
	movl	$0, 80(%edi)
.LVL648:
	.loc 1 1701 0
	shrl	$3, %eax
	movzbl	536870912(%eax), %eax
	testb	%al, %al
	je	.L1694
	movl	%ebp, %edx
	andl	$7, %edx
	addl	$3, %edx
	cmpb	%al, %dl
	jge	.L1996
.L1694:
	subl	$12, %esp
	.cfi_def_cfa_offset 76
	pushl	448(%ebx)
	.cfi_def_cfa_offset 80
	call	fdwatch_del_fd
.LVL649:
	.loc 1 1702 0
	movl	%ebp, %eax
	addl	$16, %esp
	.cfi_def_cfa_offset 64
	shrl	$3, %eax
	movzbl	536870912(%eax), %eax
	testb	%al, %al
	je	.L1695
	movl	%ebp, %edx
	andl	$7, %edx
	addl	$3, %edx
	cmpb	%al, %dl
	jge	.L1997
.L1695:
	subl	$4, %esp
	.cfi_def_cfa_offset 68
	pushl	$1
	.cfi_def_cfa_offset 72
	pushl	%edi
	.cfi_def_cfa_offset 76
	pushl	448(%ebx)
	.cfi_def_cfa_offset 80
	call	fdwatch_add_fd
.LVL650:
	addl	$16, %esp
	.cfi_def_cfa_offset 64
.LVL651:
	.p2align 4,,10
	.p2align 3
.L1633:
	.loc 1 1703 0
	addl	$44, %esp
	.cfi_remember_state
	.cfi_def_cfa_offset 20
	popl	%ebx
	.cfi_restore 3
	.cfi_def_cfa_offset 16
.LVL652:
	popl	%esi
	.cfi_restore 6
	.cfi_def_cfa_offset 12
	popl	%edi
	.cfi_restore 7
	.cfi_def_cfa_offset 8
.LVL653:
	popl	%ebp
	.cfi_restore 5
	.cfi_def_cfa_offset 4
.LVL654:
	ret
.LVL655:
	.p2align 4,,10
	.p2align 3
.L1980:
	.cfi_restore_state
	leal	136(%ebx), %ecx
	movl	%ecx, 16(%esp)
	jmp	.L1637
.LVL656:
	.p2align 4,,10
	.p2align 3
.L1988:
	.loc 1 1621 0
	call	__errno_location
.LVL657:
	movl	%eax, %edx
	shrl	$3, %edx
	movzbl	536870912(%edx), %edx
	testb	%dl, %dl
	je	.L1649
	movl	%eax, %ecx
	andl	$7, %ecx
	addl	$3, %ecx
	cmpb	%dl, %cl
	jge	.L1998
.L1649:
	movl	(%eax), %eax
	cmpl	$11, %eax
	je	.L1633
	cmpl	$4, %eax
	je	.L1633
	.loc 1 1623 0
	movl	$httpd_err400form, %eax
	movl	%eax, %edx
	shrl	$3, %edx
	movzbl	536870912(%edx), %edx
	testb	%dl, %dl
	je	.L1651
	andl	$7, %eax
	addl	$3, %eax
	cmpb	%dl, %al
	jl	.L1651
	subl	$12, %esp
	.cfi_remember_state
	.cfi_def_cfa_offset 76
	pushl	$httpd_err400form
	.cfi_def_cfa_offset 80
	call	__asan_report_load4
.LVL658:
	.p2align 4,,10
	.p2align 3
.L1658:
	.cfi_restore_state
	.loc 1 1637 0
	movl	$httpd_err400title, %eax
	movl	httpd_err400form, %ecx
	movl	%eax, %edx
	shrl	$3, %edx
	movzbl	536870912(%edx), %edx
	testb	%dl, %dl
	je	.L1659
	andl	$7, %eax
	addl	$3, %eax
	cmpb	%dl, %al
	jl	.L1659
	subl	$12, %esp
	.cfi_remember_state
	.cfi_def_cfa_offset 76
	pushl	$httpd_err400title
	.cfi_def_cfa_offset 80
	call	__asan_report_load4
.LVL659:
	.p2align 4,,10
	.p2align 3
.L1651:
	.cfi_restore_state
	.loc 1 1623 0
	movl	$httpd_err400title, %eax
	movl	httpd_err400form, %ecx
	movl	%eax, %edx
	shrl	$3, %edx
	movzbl	536870912(%edx), %edx
	testb	%dl, %dl
	je	.L1659
	andl	$7, %eax
	addl	$3, %eax
	cmpb	%dl, %al
	jl	.L1659
	subl	$12, %esp
	.cfi_remember_state
	.cfi_def_cfa_offset 76
	pushl	$httpd_err400title
	.cfi_def_cfa_offset 80
	call	__asan_report_load4
.LVL660:
	.p2align 4,,10
	.p2align 3
.L1987:
	.cfi_restore_state
	.loc 1 1610 0
	movl	$httpd_err400form, %eax
.LVL661:
	movl	%eax, %edx
	shrl	$3, %edx
	movzbl	536870912(%edx), %edx
	testb	%dl, %dl
	je	.L1646
	andl	$7, %eax
	addl	$3, %eax
	cmpb	%dl, %al
	jge	.L1999
.L1646:
	movl	$httpd_err400title, %eax
	movl	httpd_err400form, %ecx
	movl	%eax, %edx
	shrl	$3, %edx
	movzbl	536870912(%edx), %edx
	testb	%dl, %dl
	je	.L1659
	andl	$7, %eax
	addl	$3, %eax
	cmpb	%dl, %al
	jl	.L1659
	subl	$12, %esp
	.cfi_remember_state
	.cfi_def_cfa_offset 76
	pushl	$httpd_err400title
	.cfi_def_cfa_offset 80
	call	__asan_report_load4
.LVL662:
	.p2align 4,,10
	.p2align 3
.L1972:
	.cfi_restore_state
	.loc 1 1643 0
	subl	$12, %esp
	.cfi_def_cfa_offset 76
	pushl	%ebx
	.cfi_def_cfa_offset 80
	call	httpd_parse_request
.LVL663:
	addl	$16, %esp
	.cfi_def_cfa_offset 64
	testl	%eax, %eax
	js	.L1975
	.loc 1 1650 0
	movl	%edi, %eax
	call	check_throttles
.LVL664:
	testl	%eax, %eax
	je	.L2000
	.loc 1 1659 0
	subl	$8, %esp
	.cfi_def_cfa_offset 72
	pushl	20(%esp)
	.cfi_def_cfa_offset 76
	pushl	%ebx
	.cfi_def_cfa_offset 80
	call	httpd_start_request
.LVL665:
	addl	$16, %esp
	.cfi_def_cfa_offset 64
	testl	%eax, %eax
	js	.L1975
	.loc 1 1667 0
	leal	336(%ebx), %eax
	movl	%eax, %edx
	shrl	$3, %edx
	movzbl	536870912(%edx), %edx
	testb	%dl, %dl
	je	.L1666
	movl	%eax, %ecx
	andl	$7, %ecx
	addl	$3, %ecx
	cmpb	%dl, %cl
	jge	.L2001
.L1666:
	movl	336(%ebx), %edx
	testl	%edx, %edx
	je	.L1667
	.loc 1 1669 0
	leal	344(%ebx), %eax
	movl	%eax, %edx
	shrl	$3, %edx
	movzbl	536870912(%edx), %edx
	testb	%dl, %dl
	je	.L1668
	movl	%eax, %ecx
	andl	$7, %ecx
	addl	$3, %ecx
	cmpb	%dl, %cl
	jge	.L2002
.L1668:
	movl	344(%ebx), %eax
	movl	%eax, 16(%esp)
	leal	92(%edi), %eax
	movl	%eax, %edx
	shrl	$3, %edx
	movzbl	536870912(%edx), %edx
	testb	%dl, %dl
	je	.L1669
	movl	%eax, %esi
	andl	$7, %esi
	addl	$3, %esi
	movl	%esi, %ecx
	cmpb	%dl, %cl
	jge	.L2003
.L1669:
	movl	16(%esp), %eax
	movl	%eax, 92(%edi)
	.loc 1 1670 0
	leal	348(%ebx), %eax
	movl	%eax, %edx
	shrl	$3, %edx
	movzbl	536870912(%edx), %edx
	testb	%dl, %dl
	je	.L1670
	movl	%eax, %ecx
	andl	$7, %ecx
	addl	$3, %ecx
	cmpb	%dl, %cl
	jge	.L2004
.L1670:
	leal	88(%edi), %esi
	movl	348(%ebx), %eax
	movl	%esi, %edx
	shrl	$3, %edx
	addl	$1, %eax
	movzbl	536870912(%edx), %edx
	testb	%dl, %dl
	je	.L1676
	movl	%esi, %ecx
	andl	$7, %ecx
	addl	$3, %ecx
	cmpb	%dl, %cl
	jge	.L2005
.L1676:
	.loc 1 1675 0
	movl	%eax, 88(%edi)
.L1672:
	.loc 1 1678 0
	leal	452(%ebx), %eax
	movl	%eax, %edx
	shrl	$3, %edx
	movzbl	536870912(%edx), %edx
	testb	%dl, %dl
	je	.L1677
	movl	%eax, %ecx
	andl	$7, %ecx
	addl	$3, %ecx
	cmpb	%dl, %cl
	jge	.L2006
.L1677:
	movl	452(%ebx), %eax
	testl	%eax, %eax
	je	.L2007
	.loc 1 1688 0
	leal	92(%edi), %eax
	movl	%eax, %edx
	shrl	$3, %edx
	movzbl	536870912(%edx), %edx
	testb	%dl, %dl
	je	.L1688
	movl	%eax, %ecx
	andl	$7, %ecx
	addl	$3, %ecx
	cmpb	%dl, %cl
	jge	.L2008
.L1688:
	movl	%esi, %eax
	movl	92(%edi), %edx
	shrl	$3, %eax
	movzbl	536870912(%eax), %eax
	testb	%al, %al
	je	.L1689
	movl	%esi, %ecx
	andl	$7, %ecx
	addl	$3, %ecx
	cmpb	%al, %cl
	jge	.L2009
.L1689:
	cmpl	88(%edi), %edx
	jl	.L2010
.LVL666:
.L1975:
.LBB5:
	.loc 1 1685 0
	movl	12(%esp), %edx
	movl	%edi, %eax
.LBE5:
	.loc 1 1703 0
	addl	$44, %esp
	.cfi_remember_state
	.cfi_def_cfa_offset 20
	jmp	.L1974
.LVL667:
	.p2align 4,,10
	.p2align 3
.L2000:
	.cfi_restore_state
	.loc 1 1652 0
	leal	172(%ebx), %eax
	movl	%eax, %edx
	shrl	$3, %edx
	movzbl	536870912(%edx), %edx
	testb	%dl, %dl
	je	.L1662
	movl	%eax, %ecx
	andl	$7, %ecx
	addl	$3, %ecx
	cmpb	%dl, %cl
	jge	.L2011
.L1662:
	movl	$httpd_err503form, %eax
	movl	172(%ebx), %esi
	movl	%eax, %edx
	shrl	$3, %edx
	movzbl	536870912(%edx), %edx
	testb	%dl, %dl
	je	.L1663
	andl	$7, %eax
	addl	$3, %eax
	cmpb	%dl, %al
	jge	.L2012
.L1663:
	movl	$httpd_err503title, %eax
	movl	httpd_err503form, %ecx
	movl	%eax, %edx
	shrl	$3, %edx
	movzbl	536870912(%edx), %edx
	testb	%dl, %dl
	je	.L1664
	andl	$7, %eax
	addl	$3, %eax
	cmpb	%dl, %al
	jge	.L2013
.L1664:
	subl	$8, %esp
	.cfi_remember_state
	.cfi_def_cfa_offset 72
	pushl	%esi
	.cfi_def_cfa_offset 76
	pushl	%ecx
	.cfi_def_cfa_offset 80
	pushl	$.LC63
	.cfi_def_cfa_offset 84
	pushl	httpd_err503title
	.cfi_def_cfa_offset 88
	pushl	$503
	.cfi_def_cfa_offset 92
	jmp	.L1976
.L1979:
	.cfi_restore_state
	.loc 1 1592 0
	subl	$12, %esp
	.cfi_remember_state
	.cfi_def_cfa_offset 76
	pushl	%ebp
	.cfi_def_cfa_offset 80
	call	__asan_report_load4
.LVL668:
.L1978:
	.cfi_restore_state
	subl	$12, %esp
	.cfi_remember_state
	.cfi_def_cfa_offset 76
	pushl	%esi
	.cfi_def_cfa_offset 80
	call	__asan_report_load4
.LVL669:
.L1977:
	.cfi_restore_state
	.loc 1 1589 0
	subl	$12, %esp
	.cfi_remember_state
	.cfi_def_cfa_offset 76
	pushl	%eax
	.cfi_def_cfa_offset 80
	call	__asan_report_load4
.LVL670:
.L1983:
	.cfi_restore_state
	subl	$12, %esp
	.cfi_remember_state
	.cfi_def_cfa_offset 76
	pushl	%ebp
	.cfi_def_cfa_offset 80
	call	__asan_report_load4
.LVL671:
.L1981:
	.cfi_restore_state
	.loc 1 1596 0
	subl	$12, %esp
	.cfi_remember_state
	.cfi_def_cfa_offset 76
	pushl	$httpd_err400form
	.cfi_def_cfa_offset 80
	call	__asan_report_load4
.LVL672:
.L1982:
	.cfi_restore_state
	subl	$12, %esp
	.cfi_remember_state
	.cfi_def_cfa_offset 76
	pushl	$httpd_err400title
	.cfi_def_cfa_offset 80
	call	__asan_report_load4
.LVL673:
.L1998:
	.cfi_restore_state
	.loc 1 1621 0
	subl	$12, %esp
	.cfi_remember_state
	.cfi_def_cfa_offset 76
	pushl	%eax
	.cfi_def_cfa_offset 80
	call	__asan_report_load4
.LVL674:
.L1989:
	.cfi_restore_state
	.loc 1 1628 0
	subl	$12, %esp
	.cfi_remember_state
	.cfi_def_cfa_offset 76
	pushl	%esi
	.cfi_def_cfa_offset 80
	call	__asan_report_load4
.LVL675:
.L1990:
	.cfi_restore_state
	.loc 1 1629 0
	subl	$12, %esp
	.cfi_remember_state
	.cfi_def_cfa_offset 76
	pushl	24(%esp)
	.cfi_def_cfa_offset 80
	call	__asan_report_load4
.LVL676:
.L1991:
	.cfi_restore_state
	subl	$12, %esp
	.cfi_remember_state
	.cfi_def_cfa_offset 76
	pushl	%eax
	.cfi_def_cfa_offset 80
	call	__asan_report_store4
.LVL677:
.L1984:
	.cfi_restore_state
	subl	$12, %esp
	.cfi_remember_state
	.cfi_def_cfa_offset 76
	pushl	%esi
	.cfi_def_cfa_offset 80
	call	__asan_report_load4
.LVL678:
	.p2align 4,,10
	.p2align 3
.L1667:
	.cfi_restore_state
	.loc 1 1672 0
	leal	164(%ebx), %eax
	movl	%eax, %edx
	shrl	$3, %edx
	movzbl	536870912(%edx), %edx
	testb	%dl, %dl
	je	.L1673
	movl	%eax, %ecx
	andl	$7, %ecx
	addl	$3, %ecx
	cmpb	%dl, %cl
	jge	.L2014
.L1673:
	movl	164(%ebx), %eax
	.loc 1 1673 0
	leal	88(%edi), %esi
	.loc 1 1672 0
	testl	%eax, %eax
	js	.L2015
	.loc 1 1675 0
	movl	%esi, %edx
	shrl	$3, %edx
	movzbl	536870912(%edx), %edx
	testb	%dl, %dl
	je	.L1676
	movl	%esi, %ecx
	andl	$7, %ecx
	addl	$3, %ecx
	cmpb	%dl, %cl
	jl	.L1676
	subl	$12, %esp
	.cfi_remember_state
	.cfi_def_cfa_offset 76
	pushl	%esi
	.cfi_def_cfa_offset 80
	call	__asan_report_store4
.LVL679:
	.p2align 4,,10
	.p2align 3
.L2007:
	.cfi_restore_state
.LBB6:
	.loc 1 1682 0 discriminator 1
	leal	52(%edi), %eax
	movl	%eax, %edx
	shrl	$3, %edx
	movzbl	536870912(%edx), %edx
	testb	%dl, %dl
	je	.L1679
	movl	%eax, %ecx
	andl	$7, %ecx
	addl	$3, %ecx
	cmpb	%dl, %cl
	jge	.L2016
.L1679:
	movl	52(%edi), %eax
	testl	%eax, %eax
	movl	%eax, 20(%esp)
	jle	.L2017
	movl	throttles, %eax
	movl	%eax, %esi
	leal	168(%ebx), %eax
	movl	%eax, %edx
	shrl	$3, %edx
	movzbl	536870912(%edx), %edx
	testb	%dl, %dl
	je	.L1683
	movl	%eax, %ecx
	andl	$7, %ecx
	addl	$3, %ecx
	cmpb	%dl, %cl
	jge	.L2018
.L1683:
	movl	168(%ebx), %eax
	.loc 1 1682 0 is_stmt 0
	movl	%edi, 28(%esp)
	xorl	%ebp, %ebp
	movl	%eax, 16(%esp)
	leal	12(%edi), %eax
	movl	%esi, %edi
.LVL680:
	.p2align 4,,10
	.p2align 3
.L1686:
	.loc 1 1683 0 is_stmt 1 discriminator 3
	movl	%eax, %edx
	shrl	$3, %edx
	movzbl	536870912(%edx), %edx
	testb	%dl, %dl
	je	.L1684
	movl	%eax, %ecx
	andl	$7, %ecx
	addl	$3, %ecx
	cmpb	%dl, %cl
	jge	.L2019
.L1684:
	movl	(%eax), %edx
	leal	(%edx,%edx,2), %edx
	leal	(%edi,%edx,8), %edx
	leal	16(%edx), %esi
	movl	%esi, %ebx
	movl	%esi, 24(%esp)
	shrl	$3, %ebx
	movzbl	536870912(%ebx), %ebx
	testb	%bl, %bl
	je	.L1685
	andl	$7, %esi
	addl	$3, %esi
	movl	%esi, %ecx
	cmpb	%bl, %cl
	jge	.L2020
.L1685:
	movl	16(%esp), %esi
	.loc 1 1682 0 discriminator 3
	addl	$1, %ebp
.LVL681:
	.loc 1 1683 0 discriminator 3
	addl	%esi, 16(%edx)
	addl	$4, %eax
	.loc 1 1682 0 discriminator 3
	cmpl	20(%esp), %ebp
	jne	.L1686
	movl	28(%esp), %edi
.LVL682:
.L1682:
	.loc 1 1684 0
	leal	92(%edi), %eax
	movl	%eax, %edx
	shrl	$3, %edx
	movzbl	536870912(%edx), %edx
	testb	%dl, %dl
	je	.L1687
	movl	%eax, %ecx
	andl	$7, %ecx
	addl	$3, %ecx
	cmpb	%dl, %cl
	jge	.L2021
.L1687:
	movl	16(%esp), %eax
	movl	%eax, 92(%edi)
	jmp	.L1975
.LVL683:
.L2015:
.LBE6:
	.loc 1 1673 0
	movl	%esi, %eax
	shrl	$3, %eax
	movzbl	536870912(%eax), %eax
	testb	%al, %al
	je	.L1675
	movl	%esi, %edx
	andl	$7, %edx
	addl	$3, %edx
	cmpb	%al, %dl
	jge	.L2022
.L1675:
	movl	$0, 88(%edi)
	jmp	.L1672
.LVL684:
.L2017:
	leal	168(%ebx), %eax
	movl	%eax, %edx
	shrl	$3, %edx
	movzbl	536870912(%edx), %ecx
	testb	%cl, %cl
	je	.L1681
	movl	%eax, %edx
	andl	$7, %edx
	addl	$3, %edx
	cmpb	%cl, %dl
	jge	.L2023
.L1681:
	movl	168(%ebx), %eax
	movl	%eax, 16(%esp)
	jmp	.L1682
.LVL685:
.L2020:
	movl	24(%esp), %ecx
.LBB7:
	.loc 1 1683 0
	subl	$12, %esp
	.cfi_remember_state
	.cfi_def_cfa_offset 76
	pushl	%ecx
	.cfi_def_cfa_offset 80
	call	__asan_report_load4
.LVL686:
.L2021:
	.cfi_restore_state
	.loc 1 1684 0
	subl	$12, %esp
	.cfi_remember_state
	.cfi_def_cfa_offset 76
	pushl	%eax
	.cfi_def_cfa_offset 80
	call	__asan_report_store4
.LVL687:
.L2019:
	.cfi_restore_state
	.loc 1 1683 0
	subl	$12, %esp
	.cfi_remember_state
	.cfi_def_cfa_offset 76
	pushl	%eax
	.cfi_def_cfa_offset 80
	call	__asan_report_load4
.LVL688:
.L2023:
	.cfi_restore_state
	subl	$12, %esp
	.cfi_remember_state
	.cfi_def_cfa_offset 76
	pushl	%eax
	.cfi_def_cfa_offset 80
	call	__asan_report_load4
.LVL689:
.L2014:
	.cfi_restore_state
.LBE7:
	.loc 1 1672 0
	subl	$12, %esp
	.cfi_remember_state
	.cfi_def_cfa_offset 76
	pushl	%eax
	.cfi_def_cfa_offset 80
	call	__asan_report_load4
.LVL690:
.L1992:
	.cfi_restore_state
	.loc 1 1696 0
	subl	$12, %esp
	.cfi_remember_state
	.cfi_def_cfa_offset 76
	pushl	%edi
	.cfi_def_cfa_offset 80
	call	__asan_report_store4
.LVL691:
.L1993:
	.cfi_restore_state
	.loc 1 1697 0
	subl	$12, %esp
	.cfi_remember_state
	.cfi_def_cfa_offset 76
	pushl	24(%esp)
	.cfi_def_cfa_offset 80
	call	__asan_report_load4
.LVL692:
.L1994:
	.cfi_restore_state
	subl	$12, %esp
	.cfi_remember_state
	.cfi_def_cfa_offset 76
	pushl	%eax
	.cfi_def_cfa_offset 80
	call	__asan_report_store4
.LVL693:
.L1995:
	.cfi_restore_state
	.loc 1 1698 0
	subl	$12, %esp
	.cfi_remember_state
	.cfi_def_cfa_offset 76
	pushl	%eax
	.cfi_def_cfa_offset 80
	call	__asan_report_store4
.LVL694:
.L1996:
	.cfi_restore_state
	.loc 1 1701 0
	subl	$12, %esp
	.cfi_remember_state
	.cfi_def_cfa_offset 76
	pushl	%ebp
	.cfi_def_cfa_offset 80
	call	__asan_report_load4
.LVL695:
.L2016:
	.cfi_restore_state
.LBB8:
	.loc 1 1682 0
	subl	$12, %esp
	.cfi_remember_state
	.cfi_def_cfa_offset 76
	pushl	%eax
	.cfi_def_cfa_offset 80
	call	__asan_report_load4
.LVL696:
.L2018:
	.cfi_restore_state
	subl	$12, %esp
	.cfi_remember_state
	.cfi_def_cfa_offset 76
	pushl	%eax
	.cfi_def_cfa_offset 80
	call	__asan_report_load4
.LVL697:
.L2013:
	.cfi_restore_state
.LBE8:
	.loc 1 1652 0
	subl	$12, %esp
	.cfi_remember_state
	.cfi_def_cfa_offset 76
	pushl	$httpd_err503title
	.cfi_def_cfa_offset 80
	call	__asan_report_load4
.LVL698:
.L1999:
	.cfi_restore_state
	.loc 1 1610 0
	subl	$12, %esp
	.cfi_remember_state
	.cfi_def_cfa_offset 76
	pushl	$httpd_err400form
	.cfi_def_cfa_offset 80
	call	__asan_report_load4
.LVL699:
.L2009:
	.cfi_restore_state
	.loc 1 1688 0
	subl	$12, %esp
	.cfi_remember_state
	.cfi_def_cfa_offset 76
	pushl	%esi
	.cfi_def_cfa_offset 80
	call	__asan_report_load4
.LVL700:
.L2022:
	.cfi_restore_state
	.loc 1 1673 0
	subl	$12, %esp
	.cfi_remember_state
	.cfi_def_cfa_offset 76
	pushl	%esi
	.cfi_def_cfa_offset 80
	call	__asan_report_store4
.LVL701:
.L1997:
	.cfi_restore_state
	.loc 1 1702 0
	subl	$12, %esp
	.cfi_remember_state
	.cfi_def_cfa_offset 76
	pushl	%ebp
	.cfi_def_cfa_offset 80
	call	__asan_report_load4
.LVL702:
.L2008:
	.cfi_restore_state
	.loc 1 1688 0
	subl	$12, %esp
	.cfi_remember_state
	.cfi_def_cfa_offset 76
	pushl	%eax
	.cfi_def_cfa_offset 80
	call	__asan_report_load4
.LVL703:
.L2005:
	.cfi_restore_state
	.loc 1 1670 0
	subl	$12, %esp
	.cfi_remember_state
	.cfi_def_cfa_offset 76
	pushl	%esi
	.cfi_def_cfa_offset 80
	call	__asan_report_store4
.LVL704:
.L2006:
	.cfi_restore_state
	.loc 1 1678 0
	subl	$12, %esp
	.cfi_remember_state
	.cfi_def_cfa_offset 76
	pushl	%eax
	.cfi_def_cfa_offset 80
	call	__asan_report_load4
.LVL705:
.L1985:
	.cfi_restore_state
	.loc 1 1606 0
	subl	$12, %esp
	.cfi_remember_state
	.cfi_def_cfa_offset 76
	pushl	28(%esp)
	.cfi_def_cfa_offset 80
	call	__asan_report_load4
.LVL706:
.L2002:
	.cfi_restore_state
	.loc 1 1669 0
	subl	$12, %esp
	.cfi_remember_state
	.cfi_def_cfa_offset 76
	pushl	%eax
	.cfi_def_cfa_offset 80
	call	__asan_report_load4
.LVL707:
.L2003:
	.cfi_restore_state
	subl	$12, %esp
	.cfi_remember_state
	.cfi_def_cfa_offset 76
	pushl	%eax
	.cfi_def_cfa_offset 80
	call	__asan_report_store4
.LVL708:
.L2004:
	.cfi_restore_state
	.loc 1 1670 0
	subl	$12, %esp
	.cfi_remember_state
	.cfi_def_cfa_offset 76
	pushl	%eax
	.cfi_def_cfa_offset 80
	call	__asan_report_load4
.LVL709:
.L2011:
	.cfi_restore_state
	.loc 1 1652 0
	subl	$12, %esp
	.cfi_remember_state
	.cfi_def_cfa_offset 76
	pushl	%eax
	.cfi_def_cfa_offset 80
	call	__asan_report_load4
.LVL710:
.L2012:
	.cfi_restore_state
	subl	$12, %esp
	.cfi_remember_state
	.cfi_def_cfa_offset 76
	pushl	$httpd_err503form
	.cfi_def_cfa_offset 80
	call	__asan_report_load4
.LVL711:
.L1986:
	.cfi_restore_state
	.loc 1 1605 0
	subl	$12, %esp
	.cfi_remember_state
	.cfi_def_cfa_offset 76
	pushl	%ebp
	.cfi_def_cfa_offset 80
	call	__asan_report_load4
.LVL712:
.L2001:
	.cfi_restore_state
	.loc 1 1667 0
	subl	$12, %esp
	.cfi_def_cfa_offset 76
	pushl	%eax
	.cfi_def_cfa_offset 80
	call	__asan_report_load4
.LVL713:
	.cfi_endproc
.LFE18:
	.size	handle_read, .-handle_read
	.section	.text.unlikely
.LCOLDE121:
	.text
.LHOTE121:
	.section	.rodata
	.align 32
.LC122:
	.string	"%.80s connection timed out reading"
	.zero	61
	.align 32
.LC123:
	.string	"%.80s connection timed out sending"
	.zero	61
	.section	.text.unlikely
.LCOLDB124:
	.text
.LHOTB124:
	.p2align 4,,15
	.type	idle, @function
idle:
.LASANPC27:
.LFB27:
	.loc 1 2068 0
	.cfi_startproc
.LVL714:
	pushl	%ebp
	.cfi_def_cfa_offset 8
	.cfi_offset 5, -8
	pushl	%edi
	.cfi_def_cfa_offset 12
	.cfi_offset 7, -12
	.loc 1 2072 0
	xorl	%edi, %edi
	.loc 1 2068 0
	pushl	%esi
	.cfi_def_cfa_offset 16
	.cfi_offset 6, -16
	pushl	%ebx
	.cfi_def_cfa_offset 20
	.cfi_offset 3, -20
	.loc 1 2072 0
	xorl	%esi, %esi
	.loc 1 2068 0
	subl	$28, %esp
	.cfi_def_cfa_offset 48
	.loc 1 2068 0
	movl	52(%esp), %ebp
	.loc 1 2078 0
	movl	%ebp, %eax
	andl	$7, %eax
	addl	$3, %eax
	movb	%al, 11(%esp)
	.loc 1 2072 0
	movl	max_connects, %eax
	testl	%eax, %eax
	jg	.L2083
	jmp	.L2024
.LVL715:
	.p2align 4,,10
	.p2align 3
.L2111:
	.loc 1 2075 0
	jl	.L2027
	cmpl	$3, %eax
	jg	.L2027
	.loc 1 2090 0
	movl	%ebp, %eax
	shrl	$3, %eax
	movzbl	536870912(%eax), %eax
	testb	%al, %al
	je	.L2037
	cmpb	%al, 11(%esp)
	jge	.L2107
.L2037:
	leal	68(%ebx), %edx
	movl	0(%ebp), %eax
	movl	%edx, %ecx
	shrl	$3, %ecx
	movl	%eax, 4(%esp)
	movzbl	536870912(%ecx), %ecx
	testb	%cl, %cl
	je	.L2038
	movl	%edx, %eax
	andl	$7, %eax
	addl	$3, %eax
	cmpb	%cl, %al
	jge	.L2108
.L2038:
	movl	4(%esp), %eax
	subl	68(%ebx), %eax
	cmpl	$299, %eax
	jg	.L2109
.L2027:
	.loc 1 2072 0 discriminator 2
	addl	$1, %edi
.LVL716:
	addl	$96, %esi
	cmpl	%edi, max_connects
	jle	.L2024
.LVL717:
.L2083:
	.loc 1 2074 0
	movl	connects, %ebx
	addl	%esi, %ebx
.LVL718:
	.loc 1 2075 0
	movl	%ebx, %eax
	shrl	$3, %eax
	movzbl	536870912(%eax), %eax
	testb	%al, %al
	je	.L2026
	movl	%ebx, %edx
	andl	$7, %edx
	addl	$3, %edx
	cmpb	%al, %dl
	jge	.L2110
.L2026:
	movl	(%ebx), %eax
	cmpl	$1, %eax
	jne	.L2111
	.loc 1 2078 0
	movl	%ebp, %eax
	shrl	$3, %eax
	movzbl	536870912(%eax), %eax
	testb	%al, %al
	je	.L2030
	cmpb	%al, 11(%esp)
	jge	.L2112
.L2030:
	leal	68(%ebx), %edx
	movl	0(%ebp), %eax
	movl	%edx, %ecx
	shrl	$3, %ecx
	movl	%eax, 4(%esp)
	movzbl	536870912(%ecx), %ecx
	testb	%cl, %cl
	je	.L2031
	movl	%edx, %eax
	andl	$7, %eax
	addl	$3, %eax
	cmpb	%cl, %al
	jge	.L2113
.L2031:
	movl	4(%esp), %eax
	subl	68(%ebx), %eax
	cmpl	$59, %eax
	jle	.L2027
	.loc 1 2082 0
	leal	8(%ebx), %eax
	movl	%eax, %edx
	movl	%eax, 4(%esp)
	shrl	$3, %eax
	movzbl	536870912(%eax), %eax
	testb	%al, %al
	je	.L2033
	andl	$7, %edx
	addl	$3, %edx
	cmpb	%al, %dl
	jge	.L2114
.L2033:
	.loc 1 2080 0
	movl	8(%ebx), %eax
	subl	$12, %esp
	.cfi_def_cfa_offset 60
	addl	$8, %eax
	pushl	%eax
	.cfi_def_cfa_offset 64
	call	httpd_ntoa
.LVL719:
	addl	$12, %esp
	.cfi_def_cfa_offset 52
	pushl	%eax
	.cfi_def_cfa_offset 56
	pushl	$.LC122
	.cfi_def_cfa_offset 60
	pushl	$6
	.cfi_def_cfa_offset 64
	call	syslog
.LVL720:
	.loc 1 2083 0
	movl	$httpd_err408form, %eax
	addl	$16, %esp
	.cfi_def_cfa_offset 48
	movl	%eax, %edx
	shrl	$3, %edx
	movzbl	536870912(%edx), %edx
	testb	%dl, %dl
	je	.L2034
	andl	$7, %eax
	addl	$3, %eax
	cmpb	%dl, %al
	jge	.L2115
.L2034:
	movl	$httpd_err408title, %eax
	movl	httpd_err408form, %ecx
	movl	%eax, %edx
	shrl	$3, %edx
	movzbl	536870912(%edx), %edx
	testb	%dl, %dl
	je	.L2035
	andl	$7, %eax
	addl	$3, %eax
	cmpb	%dl, %al
	jge	.L2116
.L2035:
	movl	httpd_err408title, %eax
	movl	4(%esp), %edx
	movl	%eax, 12(%esp)
	movl	%edx, %eax
	shrl	$3, %eax
	movzbl	536870912(%eax), %eax
	testb	%al, %al
	je	.L2036
	andl	$7, %edx
	addl	$3, %edx
	cmpb	%al, %dl
	jge	.L2117
.L2036:
	subl	$8, %esp
	.cfi_def_cfa_offset 56
	.loc 1 2072 0
	addl	$1, %edi
.LVL721:
	addl	$96, %esi
	.loc 1 2083 0
	pushl	$.LC63
	.cfi_def_cfa_offset 60
	pushl	%ecx
	.cfi_def_cfa_offset 64
	pushl	$.LC63
	.cfi_def_cfa_offset 68
	pushl	32(%esp)
	.cfi_def_cfa_offset 72
	pushl	$408
	.cfi_def_cfa_offset 76
	pushl	8(%ebx)
	.cfi_def_cfa_offset 80
	call	httpd_send_err
.LVL722:
	.loc 1 2085 0
	addl	$32, %esp
	.cfi_def_cfa_offset 48
	movl	%ebp, %edx
	movl	%ebx, %eax
	call	finish_connection
.LVL723:
	.loc 1 2072 0
	cmpl	%edi, max_connects
	jg	.L2083
.LVL724:
	.p2align 4,,10
	.p2align 3
.L2024:
	.loc 1 2100 0
	addl	$28, %esp
	.cfi_remember_state
	.cfi_def_cfa_offset 20
	popl	%ebx
	.cfi_restore 3
	.cfi_def_cfa_offset 16
	popl	%esi
	.cfi_restore 6
	.cfi_def_cfa_offset 12
	popl	%edi
	.cfi_restore 7
	.cfi_def_cfa_offset 8
	popl	%ebp
	.cfi_restore 5
	.cfi_def_cfa_offset 4
	ret
.LVL725:
	.p2align 4,,10
	.p2align 3
.L2109:
	.cfi_restore_state
	.loc 1 2094 0
	leal	8(%ebx), %eax
	movl	%eax, %edx
	shrl	$3, %edx
	movzbl	536870912(%edx), %edx
	testb	%dl, %dl
	je	.L2040
	movl	%eax, %ecx
	andl	$7, %ecx
	addl	$3, %ecx
	cmpb	%dl, %cl
	jge	.L2118
.L2040:
	.loc 1 2092 0
	movl	8(%ebx), %eax
	subl	$12, %esp
	.cfi_def_cfa_offset 60
	addl	$8, %eax
	pushl	%eax
	.cfi_def_cfa_offset 64
	call	httpd_ntoa
.LVL726:
	addl	$12, %esp
	.cfi_def_cfa_offset 52
	pushl	%eax
	.cfi_def_cfa_offset 56
	pushl	$.LC123
	.cfi_def_cfa_offset 60
	pushl	$6
	.cfi_def_cfa_offset 64
	call	syslog
.LVL727:
	.loc 1 2095 0
	movl	%ebp, %edx
	movl	%ebx, %eax
	call	clear_connection
.LVL728:
	addl	$16, %esp
	.cfi_def_cfa_offset 48
	jmp	.L2027
.L2118:
	.loc 1 2094 0
	subl	$12, %esp
	.cfi_remember_state
	.cfi_def_cfa_offset 60
	pushl	%eax
	.cfi_def_cfa_offset 64
	call	__asan_report_load4
.LVL729:
.L2117:
	.cfi_restore_state
	.loc 1 2083 0
	subl	$12, %esp
	.cfi_remember_state
	.cfi_def_cfa_offset 60
	pushl	16(%esp)
	.cfi_def_cfa_offset 64
	call	__asan_report_load4
.LVL730:
.L2116:
	.cfi_restore_state
	subl	$12, %esp
	.cfi_remember_state
	.cfi_def_cfa_offset 60
	pushl	$httpd_err408title
	.cfi_def_cfa_offset 64
	call	__asan_report_load4
.LVL731:
.L2115:
	.cfi_restore_state
	subl	$12, %esp
	.cfi_remember_state
	.cfi_def_cfa_offset 60
	pushl	$httpd_err408form
	.cfi_def_cfa_offset 64
	call	__asan_report_load4
.LVL732:
.L2114:
	.cfi_restore_state
	.loc 1 2082 0
	subl	$12, %esp
	.cfi_remember_state
	.cfi_def_cfa_offset 60
	pushl	16(%esp)
	.cfi_def_cfa_offset 64
	call	__asan_report_load4
.LVL733:
.L2113:
	.cfi_restore_state
	.loc 1 2078 0
	subl	$12, %esp
	.cfi_remember_state
	.cfi_def_cfa_offset 60
	pushl	%edx
	.cfi_def_cfa_offset 64
	call	__asan_report_load4
.LVL734:
.L2112:
	.cfi_restore_state
	subl	$12, %esp
	.cfi_remember_state
	.cfi_def_cfa_offset 60
	pushl	%ebp
	.cfi_def_cfa_offset 64
	call	__asan_report_load4
.LVL735:
.L2108:
	.cfi_restore_state
	.loc 1 2090 0
	subl	$12, %esp
	.cfi_remember_state
	.cfi_def_cfa_offset 60
	pushl	%edx
	.cfi_def_cfa_offset 64
	call	__asan_report_load4
.LVL736:
.L2107:
	.cfi_restore_state
	subl	$12, %esp
	.cfi_remember_state
	.cfi_def_cfa_offset 60
	pushl	%ebp
	.cfi_def_cfa_offset 64
	call	__asan_report_load4
.LVL737:
.L2110:
	.cfi_restore_state
	.loc 1 2075 0
	subl	$12, %esp
	.cfi_def_cfa_offset 60
	pushl	%ebx
	.cfi_def_cfa_offset 64
	call	__asan_report_load4
.LVL738:
	.cfi_endproc
.LFE27:
	.size	idle, .-idle
	.section	.text.unlikely
.LCOLDE124:
	.text
.LHOTE124:
	.section	.rodata.str1.1
.LC125:
	.string	"1 32 16 2 iv "
	.section	.rodata
	.align 32
.LC126:
	.string	"replacing non-null wakeup_timer!"
	.zero	63
	.align 32
.LC127:
	.string	"tmr_create(wakeup_connection) failed"
	.zero	59
	.align 32
.LC128:
	.string	"write - %m sending %.80s"
	.zero	39
	.section	.text.unlikely
.LCOLDB129:
	.text
.LHOTB129:
	.p2align 4,,15
	.type	handle_send, @function
handle_send:
.LASANPC19:
.LFB19:
	.loc 1 1708 0
	.cfi_startproc
.LVL739:
	pushl	%ebp
	.cfi_def_cfa_offset 8
	.cfi_offset 5, -8
	pushl	%edi
	.cfi_def_cfa_offset 12
	.cfi_offset 7, -12
	movl	%eax, %ebp
	pushl	%esi
	.cfi_def_cfa_offset 16
	.cfi_offset 6, -16
	pushl	%ebx
	.cfi_def_cfa_offset 20
	.cfi_offset 3, -20
	subl	$172, %esp
	.cfi_def_cfa_offset 192
	leal	64(%esp), %eax
.LVL740:
	movl	%edx, 20(%esp)
	movl	%eax, 24(%esp)
	movl	__asan_option_detect_stack_use_after_return, %eax
	testl	%eax, %eax
	jne	.L2509
.LVL741:
.L2119:
	.loc 1 1708 0
	movl	24(%esp), %eax
	leal	96(%eax), %edi
	movl	%edi, 4(%esp)
	movl	$1102416563, (%eax)
.LVL742:
	movl	$.LC125, 4(%eax)
	movl	$.LASANPC19, 8(%eax)
	shrl	$3, %eax
	movl	%eax, 28(%esp)
	movl	$-235802127, 536870912(%eax)
	movl	$-185335808, 536870916(%eax)
	movl	$-202116109, 536870920(%eax)
	.loc 1 1713 0
	leal	8(%ebp), %eax
	movl	%eax, %ecx
	movl	%eax, 32(%esp)
	shrl	$3, %eax
	movzbl	536870912(%eax), %eax
	testb	%al, %al
	je	.L2123
	andl	$7, %ecx
	addl	$3, %ecx
	cmpb	%al, %cl
	jge	.L2510
.L2123:
	.loc 1 1716 0
	leal	56(%ebp), %eax
	.loc 1 1713 0
	movl	8(%ebp), %edi
.LVL743:
	.loc 1 1716 0
	movl	%eax, %ecx
	movl	%eax, 44(%esp)
	shrl	$3, %eax
	movzbl	536870912(%eax), %eax
	testb	%al, %al
	je	.L2124
	andl	$7, %ecx
	addl	$3, %ecx
	cmpb	%al, %cl
	jge	.L2511
.L2124:
	movl	56(%ebp), %ecx
	.loc 1 1717 0
	movl	$1000000000, %eax
	.loc 1 1716 0
	cmpl	$-1, %ecx
	je	.L2125
	.loc 1 1719 0
	leal	3(%ecx), %eax
	testl	%ecx, %ecx
	cmovns	%ecx, %eax
	sarl	$2, %eax
.LVL744:
.L2125:
	.loc 1 1722 0
	leal	304(%edi), %ebx
	movl	%ebx, %ecx
	movl	%ebx, 12(%esp)
	shrl	$3, %ecx
	movzbl	536870912(%ecx), %ecx
	testb	%cl, %cl
	je	.L2126
	andl	$7, %ebx
	addl	$3, %ebx
	cmpb	%cl, %bl
	jge	.L2512
.L2126:
	movl	304(%edi), %ecx
	testl	%ecx, %ecx
	jne	.L2127
	.loc 1 1727 0
	leal	88(%ebp), %esi
	movl	%esi, %edx
	movl	%esi, 36(%esp)
	shrl	$3, %edx
	movzbl	536870912(%edx), %edx
	testb	%dl, %dl
	je	.L2128
	movl	%esi, %ecx
	andl	$7, %ecx
	addl	$3, %ecx
	cmpb	%dl, %cl
	jge	.L2513
.L2128:
	leal	92(%ebp), %esi
	movl	88(%ebp), %ecx
	movl	%esi, %edx
	shrl	$3, %edx
	movzbl	536870912(%edx), %edx
	testb	%dl, %dl
	je	.L2129
	movl	%esi, %ebx
	andl	$7, %ebx
	addl	$3, %ebx
	cmpb	%dl, %bl
	jge	.L2514
.L2129:
	movl	92(%ebp), %edx
	subl	%edx, %ecx
	cmpl	%ecx, %eax
	cmovbe	%eax, %ecx
	movl	%ecx, 4(%esp)
	.loc 1 1726 0
	leal	452(%edi), %ecx
	movl	%ecx, %ebx
	shrl	$3, %ebx
	movzbl	536870912(%ebx), %ebx
	testb	%bl, %bl
	je	.L2130
	movl	%ecx, %eax
.LVL745:
	andl	$7, %eax
	addl	$3, %eax
	cmpb	%bl, %al
	jge	.L2515
.L2130:
	.loc 1 1725 0
	leal	448(%edi), %eax
	addl	452(%edi), %edx
	movl	%eax, %ecx
	movl	%eax, 40(%esp)
	shrl	$3, %ecx
	movzbl	536870912(%ecx), %ecx
	testb	%cl, %cl
	je	.L2131
	movl	%eax, %ebx
	andl	$7, %ebx
	addl	$3, %ebx
	cmpb	%cl, %bl
	jge	.L2516
.L2131:
	subl	$4, %esp
	.cfi_def_cfa_offset 196
	pushl	8(%esp)
	.cfi_def_cfa_offset 200
	pushl	%edx
	.cfi_def_cfa_offset 204
	pushl	448(%edi)
	.cfi_def_cfa_offset 208
	call	write
.LVL746:
	movl	%eax, 24(%esp)
.LVL747:
	addl	$16, %esp
	.cfi_def_cfa_offset 192
	.loc 1 1743 0
	movl	8(%esp), %eax
	testl	%eax, %eax
	js	.L2517
.L2138:
	.loc 1 1746 0
	je	.L2149
	.loc 1 1795 0
	movl	20(%esp), %edx
	movl	%edx, %eax
.LVL748:
	shrl	$3, %eax
	movzbl	536870912(%eax), %eax
	testb	%al, %al
	je	.L2156
	andl	$7, %edx
	addl	$3, %edx
	cmpb	%al, %dl
	jge	.L2518
.L2156:
	movl	20(%esp), %eax
	movl	(%eax), %ecx
	leal	68(%ebp), %eax
	movl	%eax, %edx
	shrl	$3, %edx
	movzbl	536870912(%edx), %edx
	testb	%dl, %dl
	je	.L2157
	movl	%eax, %ebx
	andl	$7, %ebx
	addl	$3, %ebx
	cmpb	%dl, %bl
	jge	.L2519
.L2157:
	.loc 1 1797 0
	movl	12(%esp), %edx
	.loc 1 1795 0
	movl	%ecx, 68(%ebp)
	.loc 1 1797 0
	movl	%edx, %eax
	shrl	$3, %eax
	movzbl	536870912(%eax), %eax
	testb	%al, %al
	je	.L2158
	andl	$7, %edx
	addl	$3, %edx
	cmpb	%al, %dl
	jge	.L2520
.L2158:
	movl	304(%edi), %eax
	testl	%eax, %eax
	je	.L2159
	.loc 1 1800 0
	cmpl	8(%esp), %eax
	ja	.L2521
	.loc 1 1812 0
	movl	12(%esp), %edx
	.loc 1 1811 0
	subl	%eax, 8(%esp)
.LVL749:
	.loc 1 1812 0
	movl	%edx, %eax
	shrl	$3, %eax
	movzbl	536870912(%eax), %eax
	testb	%al, %al
	je	.L2167
	andl	$7, %edx
	addl	$3, %edx
	cmpb	%al, %dl
	jge	.L2522
.L2167:
	movl	$0, 304(%edi)
.L2159:
.LVL750:
	.loc 1 1816 0
	movl	%esi, %eax
	shrl	$3, %eax
	movzbl	536870912(%eax), %eax
	testb	%al, %al
	je	.L2168
	movl	%esi, %edx
	andl	$7, %edx
	addl	$3, %edx
	cmpb	%al, %dl
	jge	.L2523
.L2168:
	movl	8(%esp), %eax
	addl	92(%ebp), %eax
	.loc 1 1817 0
	movl	32(%esp), %edx
	.loc 1 1816 0
	movl	%eax, 48(%esp)
	movl	%eax, 92(%ebp)
	.loc 1 1817 0
	movl	%edx, %eax
	shrl	$3, %eax
	movzbl	536870912(%eax), %eax
	testb	%al, %al
	je	.L2169
	andl	$7, %edx
	addl	$3, %edx
	cmpb	%al, %dl
	jge	.L2524
.L2169:
	movl	8(%ebp), %eax
	leal	168(%eax), %edx
	movl	%edx, %ecx
	shrl	$3, %ecx
	movzbl	536870912(%ecx), %ecx
	testb	%cl, %cl
	je	.L2170
	movl	%edx, %ebx
	andl	$7, %ebx
	addl	$3, %ebx
	cmpb	%cl, %bl
	jge	.L2525
.L2170:
	movl	8(%esp), %esi
	addl	168(%eax), %esi
	movl	%esi, 168(%eax)
.LVL751:
	.loc 1 1818 0
	leal	52(%ebp), %eax
	.loc 1 1817 0
	movl	%esi, 60(%esp)
	.loc 1 1818 0
	movl	%eax, %edx
	shrl	$3, %edx
	movzbl	536870912(%edx), %edx
	testb	%dl, %dl
	je	.L2171
	movl	%eax, %ecx
	andl	$7, %ecx
	addl	$3, %ecx
	cmpb	%dl, %cl
	jge	.L2526
.L2171:
	movl	52(%ebp), %eax
	xorl	%ecx, %ecx
	movl	%eax, %esi
	movl	%eax, 12(%esp)
	movl	throttles, %eax
	testl	%esi, %esi
	movl	%eax, %ebx
	leal	12(%ebp), %eax
	jle	.L2179
	movl	%ebp, 56(%esp)
	movl	%edi, 52(%esp)
	movl	%ebx, %ebp
.LVL752:
	movl	%ecx, 4(%esp)
.LVL753:
	.p2align 4,,10
	.p2align 3
.L2401:
	.loc 1 1819 0 discriminator 3
	movl	%eax, %edx
	shrl	$3, %edx
	movzbl	536870912(%edx), %edx
	testb	%dl, %dl
	je	.L2176
	movl	%eax, %ebx
	andl	$7, %ebx
	addl	$3, %ebx
	cmpb	%dl, %bl
	jge	.L2527
.L2176:
	movl	(%eax), %edx
	leal	(%edx,%edx,2), %edx
	leal	0(%ebp,%edx,8), %edx
	leal	16(%edx), %esi
	movl	%esi, %ebx
	movl	%esi, 16(%esp)
	shrl	$3, %esi
	movzbl	536870912(%esi), %esi
	movl	%esi, %ecx
	testb	%cl, %cl
	je	.L2177
	movl	%ebx, %edi
	movl	%esi, %ebx
	andl	$7, %edi
	addl	$3, %edi
	movl	%edi, %ecx
	cmpb	%bl, %cl
	jge	.L2528
.L2177:
	.loc 1 1818 0 discriminator 3
	addl	$1, 4(%esp)
.LVL754:
	.loc 1 1819 0 discriminator 3
	movl	8(%esp), %edi
	addl	$4, %eax
	addl	%edi, 16(%edx)
	.loc 1 1818 0 discriminator 3
	movl	12(%esp), %ebx
	movl	4(%esp), %edi
.LVL755:
	cmpl	%ebx, %edi
	jne	.L2401
	movl	52(%esp), %edi
.LVL756:
	movl	56(%esp), %ebp
.LVL757:
.L2179:
	.loc 1 1822 0
	movl	36(%esp), %edx
	movl	%edx, %eax
	shrl	$3, %eax
	movzbl	536870912(%eax), %eax
	testb	%al, %al
	je	.L2173
	andl	$7, %edx
	addl	$3, %edx
	cmpb	%al, %dl
	jge	.L2529
.L2173:
	movl	48(%esp), %eax
	cmpl	88(%ebp), %eax
	jge	.L2530
	.loc 1 1830 0
	leal	80(%ebp), %edx
	movl	%edx, %eax
	shrl	$3, %eax
	movzbl	536870912(%eax), %eax
	testb	%al, %al
	je	.L2180
	movl	%edx, %ecx
	andl	$7, %ecx
	addl	$3, %ecx
	cmpb	%al, %cl
	jge	.L2531
.L2180:
	movl	80(%ebp), %eax
	cmpl	$100, %eax
	jle	.L2181
	.loc 1 1831 0
	movl	%edx, %ecx
	subl	$100, %eax
	shrl	$3, %ecx
	movzbl	536870912(%ecx), %ecx
	testb	%cl, %cl
	je	.L2182
	movl	%edx, %ebx
	andl	$7, %ebx
	addl	$3, %ebx
	cmpb	%cl, %bl
	jge	.L2532
.L2182:
	movl	%eax, 80(%ebp)
.L2181:
	.loc 1 1834 0
	movl	44(%esp), %edx
	movl	%edx, %eax
	shrl	$3, %eax
	movzbl	536870912(%eax), %eax
	testb	%al, %al
	je	.L2183
	andl	$7, %edx
	addl	$3, %edx
	cmpb	%al, %dl
	jge	.L2533
.L2183:
	movl	56(%ebp), %ecx
	cmpl	$-1, %ecx
	je	.L2122
	.loc 1 1836 0
	movl	20(%esp), %edx
	movl	%edx, %eax
	shrl	$3, %eax
	movzbl	536870912(%eax), %eax
	testb	%al, %al
	je	.L2185
	andl	$7, %edx
	addl	$3, %edx
	cmpb	%al, %dl
	jge	.L2534
.L2185:
	leal	64(%ebp), %edx
	movl	20(%esp), %eax
	movl	%edx, %ebx
	shrl	$3, %ebx
	movl	(%eax), %eax
	movzbl	536870912(%ebx), %ebx
	movl	%eax, 4(%esp)
	testb	%bl, %bl
	je	.L2186
	movl	%edx, %esi
	andl	$7, %esi
	addl	$3, %esi
	movl	%esi, %eax
	cmpb	%bl, %al
	jge	.L2535
.L2186:
.LVL758:
	.loc 1 1838 0
	movl	4(%esp), %eax
	subl	64(%ebp), %eax
.LVL759:
	movl	%eax, %ebx
	movl	$1, %eax
.LVL760:
	cmove	%eax, %ebx
.LVL761:
	.loc 1 1839 0
	movl	60(%esp), %eax
	cltd
	idivl	%ebx
	cmpl	%eax, %ecx
	jge	.L2122
	.loc 1 1841 0
	movl	%ebp, %eax
	shrl	$3, %eax
	movzbl	536870912(%eax), %eax
	testb	%al, %al
	je	.L2188
	movl	%ebp, %edx
	andl	$7, %edx
	addl	$3, %edx
	cmpb	%al, %dl
	jl	.L2188
	subl	$12, %esp
	.cfi_remember_state
	.cfi_def_cfa_offset 204
	pushl	%ebp
	.cfi_def_cfa_offset 208
	call	__asan_report_store4
.LVL762:
	.p2align 4,,10
	.p2align 3
.L2127:
	.cfi_restore_state
.LBB9:
	.loc 1 1736 0
	leal	252(%edi), %esi
	movl	%esi, %ebx
	movl	%esi, 8(%esp)
	shrl	$3, %esi
	movzbl	536870912(%esi), %esi
	movl	%esi, %edx
	testb	%dl, %dl
	je	.L2133
	andl	$7, %ebx
	leal	3(%ebx), %edx
	movl	%esi, %ebx
	cmpb	%bl, %dl
	jge	.L2536
.L2133:
	movl	4(%esp), %esi
	movl	252(%edi), %ebx
	.loc 1 1737 0
	movl	%ecx, -60(%esi)
	.loc 1 1738 0
	leal	452(%edi), %ecx
	.loc 1 1736 0
	movl	%ebx, -64(%esi)
	.loc 1 1738 0
	movl	%ecx, %ebx
	shrl	$3, %ebx
	movzbl	536870912(%ebx), %ebx
	testb	%bl, %bl
	je	.L2134
	movl	%ecx, %esi
	andl	$7, %esi
	addl	$3, %esi
	movl	%esi, %edx
	cmpb	%bl, %dl
	jge	.L2537
.L2134:
	leal	92(%ebp), %esi
	movl	452(%edi), %ecx
	movl	%esi, %ebx
	shrl	$3, %ebx
	movzbl	536870912(%ebx), %ebx
	testb	%bl, %bl
	je	.L2135
	movl	%esi, %edx
	andl	$7, %edx
	addl	$3, %edx
	cmpb	%bl, %dl
	jge	.L2538
.L2135:
	movl	92(%ebp), %ebx
	movl	4(%esp), %edx
	addl	%ebx, %ecx
	movl	%ecx, -56(%edx)
	.loc 1 1739 0
	leal	88(%ebp), %ecx
	movl	%ecx, %edx
	movl	%ecx, 36(%esp)
	shrl	$3, %ecx
	movzbl	536870912(%ecx), %ecx
	testb	%cl, %cl
	je	.L2136
	andl	$7, %edx
	addl	$3, %edx
	cmpb	%cl, %dl
	jge	.L2539
.L2136:
	movl	88(%ebp), %ecx
	subl	%ebx, %ecx
	movl	4(%esp), %ebx
	cmpl	%ecx, %eax
	cmova	%ecx, %eax
.LVL763:
	movl	%eax, -52(%ebx)
	.loc 1 1740 0
	leal	448(%edi), %eax
	movl	%eax, %ecx
	movl	%eax, 40(%esp)
	shrl	$3, %eax
	movzbl	536870912(%eax), %eax
	testb	%al, %al
	je	.L2137
	andl	$7, %ecx
	addl	$3, %ecx
	cmpb	%al, %cl
	jge	.L2540
.L2137:
	subl	$4, %esp
	.cfi_def_cfa_offset 196
	pushl	$2
	.cfi_def_cfa_offset 200
	movl	12(%esp), %edx
	subl	$64, %edx
	pushl	%edx
	.cfi_def_cfa_offset 204
	pushl	448(%edi)
	.cfi_def_cfa_offset 208
	call	writev
.LVL764:
	movl	%eax, 24(%esp)
.LVL765:
	addl	$16, %esp
	.cfi_def_cfa_offset 192
.LBE9:
	.loc 1 1743 0
	movl	8(%esp), %eax
	testl	%eax, %eax
	jns	.L2138
.L2517:
	.loc 1 1743 0 is_stmt 0 discriminator 1
	call	__errno_location
.LVL766:
	movl	%eax, %edx
	shrl	$3, %edx
	movzbl	536870912(%edx), %edx
	testb	%dl, %dl
	je	.L2139
	movl	%eax, %ecx
	andl	$7, %ecx
	addl	$3, %ecx
	cmpb	%dl, %cl
	jge	.L2541
.L2139:
	movl	(%eax), %eax
	cmpl	$4, %eax
	je	.L2122
	.loc 1 1747 0 is_stmt 1
	cmpl	$11, %eax
	je	.L2149
	.loc 1 1788 0
	cmpl	$22, %eax
	setne	%cl
	cmpl	$32, %eax
	setne	%dl
	testb	%dl, %cl
	je	.L2153
	cmpl	$104, %eax
	je	.L2153
	.loc 1 1789 0
	leal	172(%edi), %eax
	movl	%eax, %edx
	shrl	$3, %edx
	movzbl	536870912(%edx), %edx
	testb	%dl, %dl
	je	.L2154
	movl	%eax, %ecx
	andl	$7, %ecx
	addl	$3, %ecx
	cmpb	%dl, %cl
	jl	.L2154
	subl	$12, %esp
	.cfi_remember_state
	.cfi_def_cfa_offset 204
	pushl	%eax
	.cfi_def_cfa_offset 208
	call	__asan_report_load4
.LVL767:
	.p2align 4,,10
	.p2align 3
.L2149:
	.cfi_restore_state
	.loc 1 1759 0
	leal	80(%ebp), %ebx
	movl	%ebx, %eax
	shrl	$3, %eax
	movzbl	536870912(%eax), %eax
	testb	%al, %al
	je	.L2143
	movl	%ebx, %edx
	andl	$7, %edx
	addl	$3, %edx
	cmpb	%al, %dl
	jge	.L2542
.L2143:
	.loc 1 1760 0
	movl	%ebp, %eax
	.loc 1 1759 0
	addl	$100, 80(%ebp)
	.loc 1 1760 0
	shrl	$3, %eax
	movzbl	536870912(%eax), %eax
	testb	%al, %al
	je	.L2144
	movl	%ebp, %edx
	andl	$7, %edx
	addl	$3, %edx
	cmpb	%al, %dl
	jge	.L2543
.L2144:
	.loc 1 1761 0
	movl	40(%esp), %edx
	.loc 1 1760 0
	movl	$3, 0(%ebp)
	.loc 1 1761 0
	movl	%edx, %eax
	shrl	$3, %eax
	movzbl	536870912(%eax), %eax
	testb	%al, %al
	je	.L2145
	andl	$7, %edx
	addl	$3, %edx
	cmpb	%al, %dl
	jge	.L2544
.L2145:
	subl	$12, %esp
	.cfi_def_cfa_offset 204
	.loc 1 1763 0
	leal	72(%ebp), %esi
	.loc 1 1761 0
	pushl	448(%edi)
	.cfi_def_cfa_offset 208
	call	fdwatch_del_fd
.LVL768:
	.loc 1 1763 0
	movl	%esi, %eax
	addl	$16, %esp
	.cfi_def_cfa_offset 192
	shrl	$3, %eax
	movzbl	536870912(%eax), %eax
	testb	%al, %al
	je	.L2146
	movl	%esi, %edx
	andl	$7, %edx
	addl	$3, %edx
	cmpb	%al, %dl
	jge	.L2545
.L2146:
	movl	72(%ebp), %edi
.LVL769:
	testl	%edi, %edi
	je	.L2148
	.loc 1 1764 0
	subl	$8, %esp
	.cfi_def_cfa_offset 200
	pushl	$.LC126
	.cfi_def_cfa_offset 204
	pushl	$3
	.cfi_def_cfa_offset 208
	call	syslog
.LVL770:
	addl	$16, %esp
	.cfi_def_cfa_offset 192
.L2148:
	.loc 1 1765 0
	movl	%ebx, %eax
	shrl	$3, %eax
	movzbl	536870912(%eax), %eax
	testb	%al, %al
	je	.L2151
	movl	%ebx, %edx
	andl	$7, %edx
	addl	$3, %edx
	cmpb	%al, %dl
	jge	.L2546
.L2151:
	subl	$12, %esp
	.cfi_def_cfa_offset 204
	pushl	$0
	.cfi_def_cfa_offset 208
	pushl	80(%ebp)
	.cfi_def_cfa_offset 212
	pushl	%ebp
	.cfi_def_cfa_offset 216
	pushl	$wakeup_connection
	.cfi_def_cfa_offset 220
	pushl	48(%esp)
	.cfi_def_cfa_offset 224
	call	tmr_create
.LVL771:
	movl	%esi, %edx
	addl	$32, %esp
	.cfi_def_cfa_offset 192
	shrl	$3, %edx
	movzbl	536870912(%edx), %edx
	testb	%dl, %dl
	je	.L2152
	movl	%esi, %ecx
	andl	$7, %ecx
	addl	$3, %ecx
	cmpb	%dl, %cl
	jge	.L2547
.LVL772:
.L2152:
	.loc 1 1767 0
	testl	%eax, %eax
	.loc 1 1765 0
	movl	%eax, 72(%ebp)
	.loc 1 1767 0
	je	.L2548
.L2122:
	.loc 1 1708 0
	leal	64(%esp), %eax
	cmpl	24(%esp), %eax
	jne	.L2549
	movl	28(%esp), %eax
	movl	$0, 536870912(%eax)
	movl	$0, 536870916(%eax)
	movl	$0, 536870920(%eax)
.LVL773:
.L2121:
	.loc 1 1861 0
	addl	$172, %esp
	.cfi_remember_state
	.cfi_def_cfa_offset 20
	popl	%ebx
	.cfi_restore 3
	.cfi_def_cfa_offset 16
	popl	%esi
	.cfi_restore 6
	.cfi_def_cfa_offset 12
	popl	%edi
	.cfi_restore 7
	.cfi_def_cfa_offset 8
	popl	%ebp
	.cfi_restore 5
	.cfi_def_cfa_offset 4
	ret
.LVL774:
	.p2align 4,,10
	.p2align 3
.L2521:
	.cfi_restore_state
.LBB10:
	.loc 1 1803 0
	subl	8(%esp), %eax
	movl	%eax, 4(%esp)
.LVL775:
	.loc 1 1804 0
	leal	252(%edi), %eax
.LVL776:
	movl	%eax, %edx
	shrl	$3, %edx
	movzbl	536870912(%edx), %edx
	testb	%dl, %dl
	je	.L2161
	movl	%eax, %ecx
	andl	$7, %ecx
	addl	$3, %ecx
	cmpb	%dl, %cl
	jl	.L2161
	subl	$12, %esp
	.cfi_remember_state
	.cfi_def_cfa_offset 204
	pushl	%eax
	.cfi_def_cfa_offset 208
	call	__asan_report_load4
.LVL777:
	.p2align 4,,10
	.p2align 3
.L2188:
	.cfi_restore_state
.LBE10:
	.loc 1 1842 0
	movl	40(%esp), %edx
	.loc 1 1841 0
	movl	$3, 0(%ebp)
	.loc 1 1842 0
	movl	%edx, %eax
	shrl	$3, %eax
	movzbl	536870912(%eax), %eax
	testb	%al, %al
	je	.L2189
	andl	$7, %edx
	addl	$3, %edx
	cmpb	%al, %dl
	jl	.L2189
	subl	$12, %esp
	.cfi_remember_state
	.cfi_def_cfa_offset 204
	pushl	52(%esp)
	.cfi_def_cfa_offset 208
	call	__asan_report_load4
.LVL778:
	.p2align 4,,10
	.p2align 3
.L2189:
	.cfi_restore_state
	subl	$12, %esp
	.cfi_remember_state
	.cfi_def_cfa_offset 204
	pushl	448(%edi)
	.cfi_def_cfa_offset 208
	call	fdwatch_del_fd
.LVL779:
	.loc 1 1846 0
	movl	48(%esp), %edx
	addl	$16, %esp
	.cfi_def_cfa_offset 192
	movl	%edx, %eax
	shrl	$3, %eax
	movzbl	536870912(%eax), %eax
	testb	%al, %al
	je	.L2190
	andl	$7, %edx
	addl	$3, %edx
	cmpb	%al, %dl
	jl	.L2190
	subl	$12, %esp
	.cfi_def_cfa_offset 204
	pushl	44(%esp)
	.cfi_def_cfa_offset 208
	call	__asan_report_load4
.LVL780:
	.p2align 4,,10
	.p2align 3
.L2190:
	.cfi_restore_state
	movl	8(%ebp), %eax
	leal	168(%eax), %edi
	movl	%edi, %ecx
	shrl	$3, %ecx
	movzbl	536870912(%ecx), %ecx
	testb	%cl, %cl
	je	.L2191
	movl	%edi, %esi
	andl	$7, %esi
	addl	$3, %esi
	movl	%esi, %edx
	cmpb	%cl, %dl
	jl	.L2191
	subl	$12, %esp
	.cfi_remember_state
	.cfi_def_cfa_offset 204
	pushl	%edi
	.cfi_def_cfa_offset 208
	call	__asan_report_load4
.LVL781:
	.p2align 4,,10
	.p2align 3
.L2191:
	.cfi_restore_state
	movl	44(%esp), %ecx
	movl	168(%eax), %eax
	movl	%ecx, %edx
	shrl	$3, %edx
	movzbl	536870912(%edx), %edx
	testb	%dl, %dl
	je	.L2192
	andl	$7, %ecx
	addl	$3, %ecx
	cmpb	%dl, %cl
	jl	.L2192
	subl	$12, %esp
	.cfi_remember_state
	.cfi_def_cfa_offset 204
	pushl	56(%esp)
	.cfi_def_cfa_offset 208
	call	__asan_report_load4
.LVL782:
	.p2align 4,,10
	.p2align 3
.L2192:
	.cfi_restore_state
	cltd
	idivl	56(%ebp)
	subl	%ebx, %eax
	.loc 1 1848 0
	leal	72(%ebp), %ebx
.LVL783:
	.loc 1 1846 0
	movl	%eax, %esi
.LVL784:
	.loc 1 1848 0
	movl	%ebx, %eax
.LVL785:
	shrl	$3, %eax
	movzbl	536870912(%eax), %eax
	testb	%al, %al
	je	.L2193
	movl	%ebx, %edx
	andl	$7, %edx
	addl	$3, %edx
	cmpb	%al, %dl
	jl	.L2193
	subl	$12, %esp
	.cfi_remember_state
	.cfi_def_cfa_offset 204
	pushl	%ebx
	.cfi_def_cfa_offset 208
	call	__asan_report_load4
.LVL786:
	.p2align 4,,10
	.p2align 3
.L2193:
	.cfi_restore_state
	movl	72(%ebp), %eax
	testl	%eax, %eax
	je	.L2194
	.loc 1 1849 0
	subl	$8, %esp
	.cfi_def_cfa_offset 200
	pushl	$.LC126
	.cfi_def_cfa_offset 204
	pushl	$3
	.cfi_def_cfa_offset 208
	call	syslog
.LVL787:
	addl	$16, %esp
	.cfi_def_cfa_offset 192
.L2194:
	.loc 1 1850 0
	imull	$1000, %esi, %edx
	movl	$500, %eax
	testl	%esi, %esi
	cmovg	%edx, %eax
	subl	$12, %esp
	.cfi_remember_state
	.cfi_def_cfa_offset 204
	pushl	$0
	.cfi_def_cfa_offset 208
	pushl	%eax
	.cfi_def_cfa_offset 212
	pushl	%ebp
	.cfi_def_cfa_offset 216
	pushl	$wakeup_connection
	.cfi_def_cfa_offset 220
	pushl	48(%esp)
	.cfi_def_cfa_offset 224
	call	tmr_create
.LVL788:
	movl	%ebx, %edx
	addl	$32, %esp
	.cfi_def_cfa_offset 192
	shrl	$3, %edx
	movzbl	536870912(%edx), %edx
	testb	%dl, %dl
	je	.L2152
	.loc 1 1850 0 is_stmt 0 discriminator 4
	movl	%ebx, %ecx
	andl	$7, %ecx
	addl	$3, %ecx
	cmpb	%dl, %cl
	jl	.L2152
	.loc 1 1850 0
	subl	$12, %esp
	.cfi_def_cfa_offset 204
	pushl	%ebx
	.cfi_def_cfa_offset 208
	call	__asan_report_store4
.LVL789:
	.p2align 4,,10
	.p2align 3
.L2161:
	.cfi_restore_state
.LBB11:
	.loc 1 1804 0 is_stmt 1
	movl	8(%esp), %eax
	movl	252(%edi), %ecx
	movl	4(%esp), %edx
	addl	%ecx, %eax
	testl	%edx, %edx
	movl	%eax, 8(%esp)
.LVL790:
	je	.L2164
	movl	%eax, %ebx
	leal	-1(%edx), %edx
	shrl	$3, %eax
	movzbl	536870912(%eax), %eax
	leal	(%ebx,%edx), %ebx
	movl	%ebx, 52(%esp)
	shrl	$3, %ebx
	movb	%al, 48(%esp)
	movzbl	536870912(%ebx), %eax
	movzbl	48(%esp), %ebx
	movb	%al, 16(%esp)
	movl	8(%esp), %eax
	testb	%bl, %bl
	setne	48(%esp)
	andl	$7, %eax
	cmpb	%al, %bl
	setle	%al
	testb	%al, 48(%esp)
	jne	.L2201
	cmpb	$0, 16(%esp)
	movl	52(%esp), %ebx
	setne	48(%esp)
	andl	$7, %ebx
	cmpb	%bl, 16(%esp)
	setle	%al
	testb	%al, 48(%esp)
	jne	.L2201
	movl	%ecx, %eax
	addl	%ecx, %edx
	movl	%ecx, %ebx
	shrl	$3, %eax
	movl	%edx, 16(%esp)
	shrl	$3, %edx
	movzbl	536870912(%eax), %eax
	movzbl	536870912(%edx), %edx
	testb	%al, %al
	movb	%dl, 48(%esp)
	setne	%dl
	andl	$7, %ebx
	cmpb	%bl, %al
	setle	%al
	testb	%al, %dl
	jne	.L2202
	movzbl	48(%esp), %ebx
	movl	16(%esp), %eax
	testb	%bl, %bl
	setne	%dl
	andl	$7, %eax
	cmpb	%al, %bl
	setle	%al
	testb	%al, %dl
	je	.L2164
.L2202:
	pushl	%edx
	.cfi_remember_state
	.cfi_def_cfa_offset 196
	pushl	%edx
	.cfi_def_cfa_offset 200
	pushl	12(%esp)
	.cfi_def_cfa_offset 204
	pushl	%ecx
	.cfi_def_cfa_offset 208
	call	__asan_report_store_n
.LVL791:
	.p2align 4,,10
	.p2align 3
.L2154:
	.cfi_restore_state
.LBE11:
	.loc 1 1789 0
	subl	$4, %esp
	.cfi_def_cfa_offset 196
	pushl	172(%edi)
	.cfi_def_cfa_offset 200
	pushl	$.LC128
	.cfi_def_cfa_offset 204
	pushl	$3
	.cfi_def_cfa_offset 208
	call	syslog
.LVL792:
	addl	$16, %esp
	.cfi_def_cfa_offset 192
.L2153:
	.loc 1 1790 0
	movl	20(%esp), %edx
	movl	%ebp, %eax
	call	clear_connection
.LVL793:
	.loc 1 1791 0
	jmp	.L2122
.LVL794:
	.p2align 4,,10
	.p2align 3
.L2530:
	.loc 1 1825 0
	movl	20(%esp), %edx
	movl	%ebp, %eax
	call	finish_connection
.LVL795:
	.loc 1 1826 0
	jmp	.L2122
.LVL796:
.L2164:
.LBB12:
	.loc 1 1804 0
	subl	$4, %esp
	.cfi_remember_state
	.cfi_def_cfa_offset 196
	pushl	8(%esp)
	.cfi_def_cfa_offset 200
	pushl	16(%esp)
	.cfi_def_cfa_offset 204
	pushl	%ecx
	.cfi_def_cfa_offset 208
	call	memmove
.LVL797:
	.loc 1 1805 0
	movl	28(%esp), %edx
	addl	$16, %esp
	.cfi_def_cfa_offset 192
	movl	%edx, %eax
	shrl	$3, %eax
	movzbl	536870912(%eax), %eax
	testb	%al, %al
	je	.L2166
	andl	$7, %edx
	addl	$3, %edx
	cmpb	%al, %dl
	jl	.L2166
	subl	$12, %esp
	.cfi_def_cfa_offset 204
	pushl	24(%esp)
	.cfi_def_cfa_offset 208
	call	__asan_report_store4
.LVL798:
	.p2align 4,,10
	.p2align 3
.L2166:
	.cfi_restore_state
	movl	4(%esp), %eax
	.loc 1 1806 0
	movl	$0, 8(%esp)
	.loc 1 1805 0
	movl	%eax, 304(%edi)
.LVL799:
.LBE12:
	jmp	.L2159
.LVL800:
.L2510:
	.loc 1 1713 0
	subl	$12, %esp
	.cfi_remember_state
	.cfi_def_cfa_offset 204
	pushl	44(%esp)
	.cfi_def_cfa_offset 208
	call	__asan_report_load4
.LVL801:
.L2512:
	.cfi_restore_state
	.loc 1 1722 0
	subl	$12, %esp
	.cfi_remember_state
	.cfi_def_cfa_offset 204
	pushl	24(%esp)
	.cfi_def_cfa_offset 208
	call	__asan_report_load4
.LVL802:
.L2511:
	.cfi_restore_state
	.loc 1 1716 0
	subl	$12, %esp
	.cfi_remember_state
	.cfi_def_cfa_offset 204
	pushl	56(%esp)
	.cfi_def_cfa_offset 208
	call	__asan_report_load4
.LVL803:
.L2509:
	.cfi_restore_state
	.loc 1 1708 0
	pushl	%eax
	.cfi_def_cfa_offset 196
	pushl	%eax
	.cfi_def_cfa_offset 200
	pushl	32(%esp)
	.cfi_def_cfa_offset 204
	pushl	$96
	.cfi_def_cfa_offset 208
	call	__asan_stack_malloc_1
.LVL804:
	addl	$16, %esp
	.cfi_def_cfa_offset 192
	movl	%eax, 24(%esp)
	jmp	.L2119
.LVL805:
.L2549:
	movl	24(%esp), %eax
	movl	$1172321806, (%eax)
.LVL806:
	movl	28(%esp), %eax
	movl	$-168430091, 536870912(%eax)
	movl	$-168430091, 536870916(%eax)
	movl	$-168430091, 536870920(%eax)
	jmp	.L2121
.LVL807:
.L2535:
	.loc 1 1836 0
	subl	$12, %esp
	.cfi_remember_state
	.cfi_def_cfa_offset 204
	pushl	%edx
	.cfi_def_cfa_offset 208
	call	__asan_report_load4
.LVL808:
.L2201:
	.cfi_restore_state
.LBB13:
	.loc 1 1804 0
	pushl	%ecx
	.cfi_remember_state
	.cfi_def_cfa_offset 196
	pushl	%ecx
	.cfi_def_cfa_offset 200
	pushl	12(%esp)
	.cfi_def_cfa_offset 204
	pushl	20(%esp)
	.cfi_def_cfa_offset 208
	call	__asan_report_load_n
.LVL809:
.L2522:
	.cfi_restore_state
.LBE13:
	.loc 1 1812 0
	subl	$12, %esp
	.cfi_remember_state
	.cfi_def_cfa_offset 204
	pushl	24(%esp)
	.cfi_def_cfa_offset 208
	call	__asan_report_store4
.LVL810:
.L2531:
	.cfi_restore_state
	.loc 1 1830 0
	subl	$12, %esp
	.cfi_remember_state
	.cfi_def_cfa_offset 204
	pushl	%edx
	.cfi_def_cfa_offset 208
	call	__asan_report_load4
.LVL811:
.L2532:
	.cfi_restore_state
	.loc 1 1831 0
	subl	$12, %esp
	.cfi_remember_state
	.cfi_def_cfa_offset 204
	pushl	%edx
	.cfi_def_cfa_offset 208
	call	__asan_report_store4
.LVL812:
.L2533:
	.cfi_restore_state
	.loc 1 1834 0
	subl	$12, %esp
	.cfi_remember_state
	.cfi_def_cfa_offset 204
	pushl	56(%esp)
	.cfi_def_cfa_offset 208
	call	__asan_report_load4
.LVL813:
.L2543:
	.cfi_restore_state
	.loc 1 1760 0
	subl	$12, %esp
	.cfi_remember_state
	.cfi_def_cfa_offset 204
	pushl	%ebp
	.cfi_def_cfa_offset 208
	call	__asan_report_store4
.LVL814:
.L2544:
	.cfi_restore_state
	.loc 1 1761 0
	subl	$12, %esp
	.cfi_remember_state
	.cfi_def_cfa_offset 204
	pushl	52(%esp)
	.cfi_def_cfa_offset 208
	call	__asan_report_load4
.LVL815:
.L2545:
	.cfi_restore_state
	.loc 1 1763 0
	subl	$12, %esp
	.cfi_remember_state
	.cfi_def_cfa_offset 204
	pushl	%esi
	.cfi_def_cfa_offset 208
	call	__asan_report_load4
.LVL816:
.L2546:
	.cfi_restore_state
	.loc 1 1765 0
	subl	$12, %esp
	.cfi_remember_state
	.cfi_def_cfa_offset 204
	pushl	%ebx
	.cfi_def_cfa_offset 208
	call	__asan_report_load4
.LVL817:
.L2519:
	.cfi_restore_state
	.loc 1 1795 0
	subl	$12, %esp
	.cfi_remember_state
	.cfi_def_cfa_offset 204
	pushl	%eax
	.cfi_def_cfa_offset 208
	call	__asan_report_store4
.LVL818:
.L2520:
	.cfi_restore_state
	.loc 1 1797 0
	subl	$12, %esp
	.cfi_remember_state
	.cfi_def_cfa_offset 204
	pushl	24(%esp)
	.cfi_def_cfa_offset 208
	call	__asan_report_load4
.LVL819:
.L2518:
	.cfi_restore_state
	.loc 1 1795 0
	subl	$12, %esp
	.cfi_remember_state
	.cfi_def_cfa_offset 204
	pushl	32(%esp)
	.cfi_def_cfa_offset 208
	call	__asan_report_load4
.LVL820:
.L2529:
	.cfi_restore_state
	.loc 1 1822 0
	subl	$12, %esp
	.cfi_remember_state
	.cfi_def_cfa_offset 204
	pushl	48(%esp)
	.cfi_def_cfa_offset 208
	call	__asan_report_load4
.LVL821:
.L2525:
	.cfi_restore_state
	.loc 1 1817 0
	subl	$12, %esp
	.cfi_remember_state
	.cfi_def_cfa_offset 204
	pushl	%edx
	.cfi_def_cfa_offset 208
	call	__asan_report_load4
.LVL822:
.L2526:
	.cfi_restore_state
	.loc 1 1818 0
	subl	$12, %esp
	.cfi_remember_state
	.cfi_def_cfa_offset 204
	pushl	%eax
	.cfi_def_cfa_offset 208
	call	__asan_report_load4
.LVL823:
.L2527:
	.cfi_restore_state
	.loc 1 1819 0
	subl	$12, %esp
	.cfi_remember_state
	.cfi_def_cfa_offset 204
	pushl	%eax
	.cfi_def_cfa_offset 208
	call	__asan_report_load4
.LVL824:
.L2528:
	.cfi_restore_state
	movl	16(%esp), %ebx
	subl	$12, %esp
	.cfi_remember_state
	.cfi_def_cfa_offset 204
	pushl	%ebx
	.cfi_def_cfa_offset 208
	call	__asan_report_load4
.LVL825:
.L2534:
	.cfi_restore_state
	.loc 1 1836 0
	subl	$12, %esp
	.cfi_remember_state
	.cfi_def_cfa_offset 204
	pushl	32(%esp)
	.cfi_def_cfa_offset 208
	call	__asan_report_load4
.LVL826:
.L2541:
	.cfi_restore_state
	.loc 1 1743 0
	subl	$12, %esp
	.cfi_remember_state
	.cfi_def_cfa_offset 204
	pushl	%eax
	.cfi_def_cfa_offset 208
	call	__asan_report_load4
.LVL827:
.L2542:
	.cfi_restore_state
	.loc 1 1759 0
	subl	$12, %esp
	.cfi_remember_state
	.cfi_def_cfa_offset 204
	pushl	%ebx
	.cfi_def_cfa_offset 208
	call	__asan_report_load4
.LVL828:
.L2547:
	.cfi_restore_state
	.loc 1 1765 0
	subl	$12, %esp
	.cfi_remember_state
	.cfi_def_cfa_offset 204
	pushl	%esi
	.cfi_def_cfa_offset 208
	call	__asan_report_store4
.LVL829:
.L2515:
	.cfi_restore_state
	.loc 1 1726 0
	subl	$12, %esp
	.cfi_remember_state
	.cfi_def_cfa_offset 204
	pushl	%ecx
	.cfi_def_cfa_offset 208
	call	__asan_report_load4
.LVL830:
.L2514:
	.cfi_restore_state
	.loc 1 1727 0
	subl	$12, %esp
	.cfi_remember_state
	.cfi_def_cfa_offset 204
	pushl	%esi
	.cfi_def_cfa_offset 208
	call	__asan_report_load4
.LVL831:
.L2513:
	.cfi_restore_state
	subl	$12, %esp
	.cfi_remember_state
	.cfi_def_cfa_offset 204
	pushl	48(%esp)
	.cfi_def_cfa_offset 208
	call	__asan_report_load4
.LVL832:
.L2540:
	.cfi_restore_state
.LBB14:
	.loc 1 1740 0
	subl	$12, %esp
	.cfi_remember_state
	.cfi_def_cfa_offset 204
	pushl	52(%esp)
	.cfi_def_cfa_offset 208
	call	__asan_report_load4
.LVL833:
.L2539:
	.cfi_restore_state
	.loc 1 1739 0
	subl	$12, %esp
	.cfi_remember_state
	.cfi_def_cfa_offset 204
	pushl	48(%esp)
	.cfi_def_cfa_offset 208
	call	__asan_report_load4
.LVL834:
.L2538:
	.cfi_restore_state
	.loc 1 1738 0
	subl	$12, %esp
	.cfi_remember_state
	.cfi_def_cfa_offset 204
	pushl	%esi
	.cfi_def_cfa_offset 208
	call	__asan_report_load4
.LVL835:
.L2537:
	.cfi_restore_state
	subl	$12, %esp
	.cfi_remember_state
	.cfi_def_cfa_offset 204
	pushl	%ecx
	.cfi_def_cfa_offset 208
	call	__asan_report_load4
.LVL836:
.L2536:
	.cfi_restore_state
	.loc 1 1736 0
	subl	$12, %esp
	.cfi_remember_state
	.cfi_def_cfa_offset 204
	pushl	20(%esp)
	.cfi_def_cfa_offset 208
	call	__asan_report_load4
.LVL837:
.L2548:
	.cfi_restore_state
.LBE14:
	.loc 1 1769 0
	pushl	%ebx
	.cfi_remember_state
	.cfi_def_cfa_offset 196
	pushl	%ebx
	.cfi_def_cfa_offset 200
	pushl	$.LC127
	.cfi_def_cfa_offset 204
	pushl	$2
	.cfi_def_cfa_offset 208
	call	syslog
.LVL838:
	.loc 1 1770 0
	call	__asan_handle_no_return
.LVL839:
	movl	$1, (%esp)
	call	exit
.LVL840:
.L2516:
	.cfi_restore_state
	.loc 1 1725 0
	subl	$12, %esp
	.cfi_remember_state
	.cfi_def_cfa_offset 204
	pushl	52(%esp)
	.cfi_def_cfa_offset 208
	call	__asan_report_load4
.LVL841:
.L2523:
	.cfi_restore_state
	.loc 1 1816 0
	subl	$12, %esp
	.cfi_remember_state
	.cfi_def_cfa_offset 204
	pushl	%esi
	.cfi_def_cfa_offset 208
	call	__asan_report_load4
.LVL842:
.L2524:
	.cfi_restore_state
	.loc 1 1817 0
	subl	$12, %esp
	.cfi_def_cfa_offset 204
	pushl	44(%esp)
	.cfi_def_cfa_offset 208
	call	__asan_report_load4
.LVL843:
	.cfi_endproc
.LFE19:
	.size	handle_send, .-handle_send
	.section	.text.unlikely
.LCOLDE129:
	.text
.LHOTE129:
	.section	.text.unlikely
.LCOLDB130:
	.text
.LHOTB130:
	.p2align 4,,15
	.type	linger_clear_connection, @function
linger_clear_connection:
.LASANPC29:
.LFB29:
	.loc 1 2119 0
	.cfi_startproc
.LVL844:
	pushl	%ebx
	.cfi_def_cfa_offset 8
	.cfi_offset 3, -8
	subl	$8, %esp
	.cfi_def_cfa_offset 16
	.loc 1 2122 0
	leal	16(%esp), %eax
.LVL845:
	shrl	$3, %eax
.LVL846:
	movzbl	536870912(%eax), %eax
	testb	%al, %al
	je	.L2551
	leal	16(%esp), %edx
.LVL847:
	andl	$7, %edx
.LVL848:
	addl	$3, %edx
	cmpb	%al, %dl
	jge	.L2566
.L2551:
	movl	16(%esp), %eax
.LVL849:
	.loc 1 2123 0
	leal	76(%eax), %edx
	movl	%edx, %ecx
	shrl	$3, %ecx
	movzbl	536870912(%ecx), %ecx
	testb	%cl, %cl
	je	.L2552
	movl	%edx, %ebx
	andl	$7, %ebx
	addl	$3, %ebx
	cmpb	%cl, %bl
	jge	.L2567
.L2552:
	.loc 1 2124 0
	movl	20(%esp), %edx
	.loc 1 2123 0
	movl	$0, 76(%eax)
	.loc 1 2124 0
	call	really_clear_connection
.LVL850:
	.loc 1 2125 0
	addl	$8, %esp
	.cfi_remember_state
	.cfi_def_cfa_offset 8
	popl	%ebx
	.cfi_restore 3
	.cfi_def_cfa_offset 4
	ret
.LVL851:
.L2567:
	.cfi_restore_state
	.loc 1 2123 0
	subl	$12, %esp
	.cfi_remember_state
	.cfi_def_cfa_offset 28
	pushl	%edx
	.cfi_def_cfa_offset 32
	call	__asan_report_store4
.LVL852:
.L2566:
	.cfi_restore_state
	.loc 1 2122 0
	subl	$12, %esp
	.cfi_def_cfa_offset 28
	leal	28(%esp), %eax
.LVL853:
	pushl	%eax
	.cfi_def_cfa_offset 32
	call	__asan_report_load4
.LVL854:
	.cfi_endproc
.LFE29:
	.size	linger_clear_connection, .-linger_clear_connection
	.section	.text.unlikely
.LCOLDE130:
	.text
.LHOTE130:
	.globl	__asan_stack_malloc_7
	.section	.rodata.str1.1
.LC131:
	.string	"1 32 4096 3 buf "
	.globl	__asan_stack_free_7
	.section	.text.unlikely
.LCOLDB132:
	.text
.LHOTB132:
	.p2align 4,,15
	.type	handle_linger, @function
handle_linger:
.LASANPC20:
.LFB20:
	.loc 1 1866 0
	.cfi_startproc
.LVL855:
	pushl	%ebp
	.cfi_def_cfa_offset 8
	.cfi_offset 5, -8
	pushl	%edi
	.cfi_def_cfa_offset 12
	.cfi_offset 7, -12
	movl	%eax, %edi
	pushl	%esi
	.cfi_def_cfa_offset 16
	.cfi_offset 6, -16
	pushl	%ebx
	.cfi_def_cfa_offset 20
	.cfi_offset 3, -20
	subl	$4188, %esp
	.cfi_def_cfa_offset 4208
	movl	__asan_option_detect_stack_use_after_return, %ecx
	leal	16(%esp), %ebx
	movl	%edx, 12(%esp)
	testl	%ecx, %ecx
	movl	%ebx, %ebp
	jne	.L2602
.LVL856:
.L2568:
	.loc 1 1866 0
	leal	4160(%ebx), %eax
	movl	%ebx, %esi
	shrl	$3, %esi
	movl	%eax, 4(%esp)
	.loc 1 1873 0
	leal	8(%edi), %eax
	.loc 1 1866 0
	movl	$1102416563, (%ebx)
.LVL857:
	movl	$.LC131, 4(%ebx)
	movl	$.LASANPC20, 8(%ebx)
	.loc 1 1873 0
	movl	%eax, %edx
	.loc 1 1866 0
	movl	$-235802127, 536870912(%esi)
	movl	$-202116109, 536871428(%esi)
	.loc 1 1873 0
	shrl	$3, %edx
	movzbl	536870912(%edx), %edx
	testb	%dl, %dl
	je	.L2572
	movl	%eax, %ecx
	andl	$7, %ecx
	addl	$3, %ecx
	cmpb	%dl, %cl
	jge	.L2603
.L2572:
	movl	8(%edi), %eax
	leal	448(%eax), %edx
	movl	%edx, %ecx
	shrl	$3, %ecx
	movzbl	536870912(%ecx), %ecx
	testb	%cl, %cl
	movb	%cl, 11(%esp)
	je	.L2573
	movl	%edx, %ecx
	andl	$7, %ecx
	addl	$3, %ecx
	cmpb	11(%esp), %cl
	jge	.L2604
.L2573:
	subl	$4, %esp
	.cfi_def_cfa_offset 4212
	pushl	$4096
	.cfi_def_cfa_offset 4216
	movl	12(%esp), %edx
	subl	$4128, %edx
	pushl	%edx
	.cfi_def_cfa_offset 4220
	pushl	448(%eax)
	.cfi_def_cfa_offset 4224
	call	read
.LVL858:
	.loc 1 1874 0
	addl	$16, %esp
	.cfi_def_cfa_offset 4208
	testl	%eax, %eax
	js	.L2605
	.loc 1 1876 0
	je	.L2578
.LVL859:
.L2571:
	.loc 1 1866 0
	cmpl	%ebx, %ebp
	jne	.L2606
	movl	$0, 536870912(%esi)
	movl	$0, 536871428(%esi)
.L2570:
	.loc 1 1878 0
	addl	$4188, %esp
	.cfi_remember_state
	.cfi_def_cfa_offset 20
	popl	%ebx
	.cfi_restore 3
	.cfi_def_cfa_offset 16
	popl	%esi
	.cfi_restore 6
	.cfi_def_cfa_offset 12
	popl	%edi
	.cfi_restore 7
	.cfi_def_cfa_offset 8
.LVL860:
	popl	%ebp
	.cfi_restore 5
	.cfi_def_cfa_offset 4
	ret
.LVL861:
	.p2align 4,,10
	.p2align 3
.L2605:
	.cfi_restore_state
	.loc 1 1874 0 discriminator 1
	call	__errno_location
.LVL862:
	movl	%eax, %edx
	shrl	$3, %edx
	movzbl	536870912(%edx), %edx
	testb	%dl, %dl
	je	.L2575
	movl	%eax, %ecx
	andl	$7, %ecx
	addl	$3, %ecx
	cmpb	%dl, %cl
	jge	.L2607
.L2575:
	movl	(%eax), %eax
	cmpl	$11, %eax
	je	.L2571
	cmpl	$4, %eax
	je	.L2571
.L2578:
	.loc 1 1877 0
	movl	12(%esp), %edx
	movl	%edi, %eax
	call	really_clear_connection
.LVL863:
	jmp	.L2571
.L2603:
	.loc 1 1873 0
	subl	$12, %esp
	.cfi_remember_state
	.cfi_def_cfa_offset 4220
	pushl	%eax
	.cfi_def_cfa_offset 4224
	call	__asan_report_load4
.LVL864:
.L2604:
	.cfi_restore_state
	subl	$12, %esp
	.cfi_remember_state
	.cfi_def_cfa_offset 4220
	pushl	%edx
	.cfi_def_cfa_offset 4224
	call	__asan_report_load4
.LVL865:
.L2607:
	.cfi_restore_state
	.loc 1 1874 0
	subl	$12, %esp
	.cfi_remember_state
	.cfi_def_cfa_offset 4220
	pushl	%eax
	.cfi_def_cfa_offset 4224
	call	__asan_report_load4
.LVL866:
.L2606:
	.cfi_restore_state
	.loc 1 1866 0
	movl	$1172321806, (%ebx)
	pushl	%eax
	.cfi_def_cfa_offset 4212
	pushl	%ebp
	.cfi_def_cfa_offset 4216
	pushl	$4160
	.cfi_def_cfa_offset 4220
	pushl	%ebx
	.cfi_def_cfa_offset 4224
	call	__asan_stack_free_7
.LVL867:
	addl	$16, %esp
	.cfi_def_cfa_offset 4208
	jmp	.L2570
.LVL868:
.L2602:
.LVL869:
	pushl	%edx
	.cfi_def_cfa_offset 4212
	pushl	%edx
	.cfi_def_cfa_offset 4216
	pushl	%ebx
	.cfi_def_cfa_offset 4220
	pushl	$4160
	.cfi_def_cfa_offset 4224
	call	__asan_stack_malloc_7
.LVL870:
	addl	$16, %esp
	.cfi_def_cfa_offset 4208
	movl	%eax, %ebx
	jmp	.L2568
	.cfi_endproc
.LFE20:
	.size	handle_linger, .-handle_linger
	.section	.text.unlikely
.LCOLDE132:
	.text
.LHOTE132:
	.section	.rodata.str1.4
	.align 4
.LC133:
	.string	"3 32 4 2 ai 96 10 7 portstr 160 32 5 hints "
	.section	.rodata
	.align 32
.LC134:
	.string	"%d"
	.zero	61
	.align 32
.LC135:
	.string	"getaddrinfo %.80s - %.80s"
	.zero	38
	.align 32
.LC136:
	.string	"%s: getaddrinfo %s - %s\n"
	.zero	39
	.align 32
.LC137:
	.string	"%.80s - sockaddr too small (%lu < %lu)"
	.zero	57
	.section	.text.unlikely
.LCOLDB138:
	.text
.LHOTB138:
	.p2align 4,,15
	.type	lookup_hostname.constprop.1, @function
lookup_hostname.constprop.1:
.LASANPC35:
.LFB35:
	.loc 1 1235 0
	.cfi_startproc
.LVL871:
	pushl	%ebp
	.cfi_def_cfa_offset 8
	.cfi_offset 5, -8
	pushl	%edi
	.cfi_def_cfa_offset 12
	.cfi_offset 7, -12
	pushl	%esi
	.cfi_def_cfa_offset 16
	.cfi_offset 6, -16
	pushl	%ebx
	.cfi_def_cfa_offset 20
	.cfi_offset 3, -20
	subl	$268, %esp
	.cfi_def_cfa_offset 288
	movl	__asan_option_detect_stack_use_after_return, %edi
	movl	%eax, 4(%esp)
	leal	32(%esp), %eax
.LVL872:
	movl	%edx, 20(%esp)
	movl	%ecx, 8(%esp)
	testl	%edi, %edi
	movl	%eax, 16(%esp)
	jne	.L2760
.LVL873:
.L2608:
	.loc 1 1235 0
	movl	16(%esp), %eax
	leal	224(%eax), %esi
	.loc 1 1247 0
	leal	160(%eax), %edx
	.loc 1 1235 0
	movl	%eax, %ebp
	shrl	$3, %ebp
	movl	%esi, 12(%esp)
	movl	$1102416563, (%eax)
.LVL874:
	movl	%eax, %esi
	movl	$.LC133, 4(%eax)
	movl	$.LASANPC35, 8(%eax)
	.loc 1 1247 0
	movl	%edx, %eax
	shrl	$3, %eax
	.loc 1 1235 0
	movl	$-235802127, 536870912(%ebp)
	movl	$-185273340, 536870916(%ebp)
	movl	$-218959118, 536870920(%ebp)
	movl	$-185335296, 536870924(%ebp)
	.loc 1 1247 0
	movl	%edx, %edi
	.loc 1 1235 0
	movl	$-218959118, 536870928(%ebp)
	movl	$-202116109, 536870936(%ebp)
	.loc 1 1247 0
	movzbl	536870912(%eax), %ebx
	movl	%esi, %eax
	addl	$191, %eax
	movl	%eax, %ecx
	movl	%eax, (%esp)
	shrl	$3, %ecx
	testb	%bl, %bl
	movzbl	536870912(%ecx), %ecx
	setne	%al
	andl	$7, %edi
	movl	%eax, %esi
	movl	%edi, %eax
	cmpb	%al, %bl
	movl	%esi, %eax
	setle	%bl
	testb	%bl, %al
	jne	.L2651
	movl	(%esp), %eax
	testb	%cl, %cl
	setne	%bl
	andl	$7, %eax
	cmpb	%al, %cl
	setle	%al
	testb	%al, %bl
	jne	.L2651
	xorl	%eax, %eax
.L2614:
	movl	$0, (%edx,%eax)
	addl	$4, %eax
	cmpl	$32, %eax
	jb	.L2614
	.loc 1 1249 0
	movl	12(%esp), %esi
	.loc 1 1251 0
	movzwl	port, %eax
	leal	-128(%esi), %ebx
	.loc 1 1249 0
	movl	$1, -64(%esi)
	.loc 1 1250 0
	movl	$1, -56(%esi)
	.loc 1 1251 0
	pushl	%eax
	.cfi_def_cfa_offset 292
	pushl	$.LC134
	.cfi_def_cfa_offset 296
	pushl	$10
	.cfi_def_cfa_offset 300
	pushl	%ebx
	.cfi_def_cfa_offset 304
	call	snprintf
.LVL875:
	.loc 1 1252 0
	movl	%esi, %eax
	subl	$192, %eax
	pushl	%eax
	.cfi_def_cfa_offset 308
	movl	%esi, %eax
	subl	$64, %eax
	pushl	%eax
	.cfi_def_cfa_offset 312
	pushl	%ebx
	.cfi_def_cfa_offset 316
	pushl	hostname
	.cfi_def_cfa_offset 320
	call	getaddrinfo
.LVL876:
	addl	$32, %esp
	.cfi_def_cfa_offset 288
	testl	%eax, %eax
	movl	%eax, %ebx
.LVL877:
	jne	.L2761
.LVL878:
	.loc 1 1266 0
	movl	12(%esp), %eax
.LVL879:
	movl	-192(%eax), %eax
.LVL880:
	testl	%eax, %eax
	je	.L2618
	xorl	%edx, %edx
	movl	$0, (%esp)
	movl	%edx, %esi
	jmp	.L2624
.LVL881:
	.p2align 4,,10
	.p2align 3
.L2765:
	.loc 1 1268 0
	cmpl	$10, %ecx
	jne	.L2620
	.loc 1 1271 0
	testl	%esi, %esi
	cmove	%eax, %esi
.LVL882:
.L2620:
	.loc 1 1266 0
	leal	28(%eax), %ecx
	movl	%ecx, %edx
	shrl	$3, %edx
	movzbl	536870912(%edx), %edx
	testb	%dl, %dl
	je	.L2623
	movl	%ecx, %edi
	andl	$7, %edi
	addl	$3, %edi
	movl	%edi, %ebx
	cmpb	%dl, %bl
	jge	.L2762
.L2623:
	movl	28(%eax), %eax
.LVL883:
	testl	%eax, %eax
	je	.L2763
.LVL884:
.L2624:
	.loc 1 1268 0
	leal	4(%eax), %ecx
	movl	%ecx, %edx
	shrl	$3, %edx
	movzbl	536870912(%edx), %edx
	testb	%dl, %dl
	je	.L2619
	movl	%ecx, %edi
	andl	$7, %edi
	addl	$3, %edi
	movl	%edi, %ebx
	cmpb	%dl, %bl
	jge	.L2764
.L2619:
	movl	4(%eax), %ecx
	cmpl	$2, %ecx
	jne	.L2765
	.loc 1 1275 0
	movl	(%esp), %ebx
	testl	%ebx, %ebx
	cmove	%eax, %ebx
	movl	%ebx, (%esp)
.LVL885:
	jmp	.L2620
.LVL886:
	.p2align 4,,10
	.p2align 3
.L2763:
	.loc 1 1281 0
	testl	%esi, %esi
	movl	%esi, %edx
	je	.L2766
.LVL887:
	.loc 1 1285 0
	leal	16(%esi), %esi
	movl	%esi, %eax
.LVL888:
	shrl	$3, %eax
	movzbl	536870912(%eax), %eax
	testb	%al, %al
	je	.L2628
	movl	%esi, %ecx
.LVL889:
	andl	$7, %ecx
	addl	$3, %ecx
	cmpb	%al, %cl
	jge	.L2767
.L2628:
	movl	16(%edx), %eax
	cmpl	$128, %eax
	ja	.L2759
	.loc 1 1293 0
	movl	8(%esp), %edi
	movl	%edi, %ebx
	movl	%edi, %eax
	addl	$127, %ebx
	shrl	$3, %eax
	movl	%ebx, %ecx
	movzbl	536870912(%eax), %eax
	movl	%ebx, 24(%esp)
	shrl	$3, %ecx
	movzbl	536870912(%ecx), %ebx
	testb	%al, %al
	setne	31(%esp)
	andl	$7, %edi
	movb	%bl, 30(%esp)
	movzbl	31(%esp), %ebx
	movl	%edi, %ecx
	cmpb	%cl, %al
	setle	%al
	testb	%al, %bl
	jne	.L2652
	movzbl	30(%esp), %ebx
	testb	%bl, %bl
	setne	%al
	movl	%eax, %edi
	movl	24(%esp), %eax
	andl	$7, %eax
	cmpb	%al, %bl
	movl	%edi, %ebx
	setle	%al
	testb	%al, %bl
	jne	.L2652
	movl	8(%esp), %eax
	leal	4(%eax), %edi
	movl	%eax, %ecx
	movl	$0, (%eax)
.LVL890:
	movl	$0, 124(%eax)
	xorl	%eax, %eax
	andl	$-4, %edi
	subl	%edi, %ecx
	subl	$-128, %ecx
	shrl	$2, %ecx
	rep; stosl
	.loc 1 1294 0
	movl	%esi, %eax
	shrl	$3, %eax
	movzbl	536870912(%eax), %eax
	testb	%al, %al
	je	.L2632
	movl	%esi, %ecx
	andl	$7, %ecx
	addl	$3, %ecx
	cmpb	%al, %cl
	jge	.L2768
.L2632:
	leal	20(%edx), %esi
	movl	16(%edx), %eax
	movl	%esi, %edi
	movl	%esi, 24(%esp)
	shrl	$3, %esi
	movzbl	536870912(%esi), %esi
	movl	%esi, %ebx
	testb	%bl, %bl
	je	.L2633
	andl	$7, %edi
	movl	%esi, %ecx
	addl	$3, %edi
	movl	%edi, %ebx
	cmpb	%cl, %bl
	jge	.L2769
.L2633:
	testl	%eax, %eax
	movl	20(%edx), %ecx
	je	.L2636
	leal	-1(%eax), %esi
	movl	%ecx, %edx
.LVL891:
	shrl	$3, %edx
	movzbl	536870912(%edx), %ebx
	leal	(%ecx,%esi), %edi
	movl	%esi, 24(%esp)
.LVL892:
	movl	%edi, %esi
	shrl	$3, %esi
	movl	%ebx, %edx
	movzbl	536870912(%esi), %ebx
	movl	%ecx, %esi
	testb	%dl, %dl
	setne	31(%esp)
	andl	$7, %esi
	movb	%bl, 30(%esp)
	movl	%edx, %ebx
	movl	%esi, %edx
	cmpb	%dl, %bl
	setle	%dl
	testb	%dl, 31(%esp)
	jne	.L2653
	movzbl	30(%esp), %ebx
	movl	%edi, %esi
	testb	%bl, %bl
	setne	30(%esp)
	andl	$7, %esi
	movl	%esi, %edx
	cmpb	%dl, %bl
	setle	%bl
	testb	%bl, 30(%esp)
	jne	.L2653
	movl	24(%esp), %edx
	addl	8(%esp), %edx
	movl	%edx, %esi
	shrl	$3, %esi
	movzbl	536870912(%esi), %esi
	movl	%esi, %ebx
	testb	%bl, %bl
	je	.L2636
	andl	$7, %edx
	cmpb	%dl, %bl
	jg	.L2636
	pushl	%ebp
	.cfi_remember_state
	.cfi_def_cfa_offset 292
	pushl	%ebp
	.cfi_def_cfa_offset 296
	pushl	%eax
	.cfi_def_cfa_offset 300
	pushl	20(%esp)
	.cfi_def_cfa_offset 304
	call	__asan_report_store_n
.LVL893:
	.p2align 4,,10
	.p2align 3
.L2636:
	.cfi_restore_state
	subl	$4, %esp
	.cfi_def_cfa_offset 292
	pushl	%eax
	.cfi_def_cfa_offset 296
	pushl	%ecx
	.cfi_def_cfa_offset 300
	pushl	20(%esp)
	.cfi_def_cfa_offset 304
	call	memmove
.LVL894:
	.loc 1 1295 0
	movl	304(%esp), %eax
	addl	$16, %esp
	.cfi_def_cfa_offset 288
	shrl	$3, %eax
	movzbl	536870912(%eax), %eax
	testb	%al, %al
	je	.L2637
	movl	288(%esp), %edx
	andl	$7, %edx
	addl	$3, %edx
	cmpb	%al, %dl
	jge	.L2770
.L2637:
	movl	288(%esp), %eax
	movl	$1, (%eax)
.L2627:
	.loc 1 1298 0
	movl	(%esp), %edi
	testl	%edi, %edi
	je	.L2771
	.loc 1 1302 0
	movl	(%esp), %eax
	leal	16(%eax), %edx
	movl	%edx, %eax
	shrl	$3, %eax
	movzbl	536870912(%eax), %eax
	testb	%al, %al
	je	.L2641
	movl	%edx, %ecx
	andl	$7, %ecx
	addl	$3, %ecx
	cmpb	%al, %cl
	jge	.L2772
.L2641:
	movl	(%esp), %eax
	movl	16(%eax), %eax
	cmpl	$128, %eax
	ja	.L2759
	.loc 1 1310 0
	movl	4(%esp), %edi
	movl	%edi, %eax
	shrl	$3, %eax
	movzbl	536870912(%eax), %esi
	movl	%edi, %eax
	addl	$127, %eax
	movl	%eax, %ecx
	movl	%eax, 8(%esp)
	shrl	$3, %ecx
	movzbl	536870912(%ecx), %ebx
	movl	%esi, %eax
	movb	%bl, 24(%esp)
	movl	%esi, %ebx
	testb	%bl, %bl
	setne	30(%esp)
	andl	$7, %edi
	movzbl	30(%esp), %ebx
	movl	%edi, %ecx
	cmpb	%cl, %al
	setle	%al
	testb	%al, %bl
	jne	.L2654
	movzbl	24(%esp), %ebx
	testb	%bl, %bl
	setne	%al
	movl	%eax, %esi
	movl	8(%esp), %eax
	andl	$7, %eax
	cmpb	%al, %bl
	movl	%esi, %ebx
	setle	%al
	testb	%al, %bl
	jne	.L2654
	movl	4(%esp), %eax
	leal	4(%eax), %edi
	movl	%eax, %ecx
	movl	$0, (%eax)
	movl	$0, 124(%eax)
	xorl	%eax, %eax
	andl	$-4, %edi
	subl	%edi, %ecx
	subl	$-128, %ecx
	shrl	$2, %ecx
	rep; stosl
	.loc 1 1311 0
	movl	%edx, %eax
	shrl	$3, %eax
	movzbl	536870912(%eax), %eax
	testb	%al, %al
	je	.L2645
	movl	%edx, %ecx
	andl	$7, %ecx
	addl	$3, %ecx
	cmpb	%al, %cl
	jge	.L2773
.L2645:
	movl	(%esp), %esi
	leal	20(%esi), %edx
	movl	16(%esi), %eax
	movl	%edx, %ecx
	shrl	$3, %ecx
	movzbl	536870912(%ecx), %ecx
	testb	%cl, %cl
	je	.L2646
	movl	%edx, %esi
	andl	$7, %esi
	addl	$3, %esi
	movl	%esi, %ebx
	cmpb	%cl, %bl
	jge	.L2774
.L2646:
	movl	(%esp), %esi
	testl	%eax, %eax
	movl	20(%esi), %ecx
	je	.L2649
	leal	-1(%eax), %ebx
	movl	%ecx, %edx
	shrl	$3, %edx
	leal	(%ecx,%ebx), %edi
	movl	%ebx, (%esp)
	movzbl	536870912(%edx), %esi
	movl	%ecx, %edx
	movl	%edi, %ebx
	shrl	$3, %ebx
	movzbl	536870912(%ebx), %ebx
	movb	%bl, 8(%esp)
	movl	%esi, %ebx
	testb	%bl, %bl
	setne	24(%esp)
	andl	$7, %edx
	movl	%edx, %ebx
	movl	%esi, %edx
	cmpb	%bl, %dl
	setle	%bl
	testb	%bl, 24(%esp)
	jne	.L2655
	cmpb	$0, 8(%esp)
	setne	%dl
	andl	$7, %edi
	movl	%edi, %ebx
	cmpb	%bl, 8(%esp)
	setle	%bl
	testb	%bl, %dl
	jne	.L2655
	movl	(%esp), %edx
	addl	4(%esp), %edx
	movl	%edx, %ebx
	shrl	$3, %ebx
	movzbl	536870912(%ebx), %ebx
	testb	%bl, %bl
	je	.L2649
	andl	$7, %edx
	cmpb	%dl, %bl
	jg	.L2649
	pushl	%edx
	.cfi_remember_state
	.cfi_def_cfa_offset 292
	pushl	%edx
	.cfi_def_cfa_offset 296
	pushl	%eax
	.cfi_def_cfa_offset 300
	pushl	16(%esp)
	.cfi_def_cfa_offset 304
	call	__asan_report_store_n
.LVL895:
	.p2align 4,,10
	.p2align 3
.L2649:
	.cfi_restore_state
	subl	$4, %esp
	.cfi_def_cfa_offset 292
	pushl	%eax
	.cfi_def_cfa_offset 296
	pushl	%ecx
	.cfi_def_cfa_offset 300
	pushl	16(%esp)
	.cfi_def_cfa_offset 304
	call	memmove
.LVL896:
	.loc 1 1312 0
	movl	36(%esp), %edx
	addl	$16, %esp
	.cfi_def_cfa_offset 288
	movl	%edx, %eax
	shrl	$3, %eax
	movzbl	536870912(%eax), %eax
	testb	%al, %al
	je	.L2650
	andl	$7, %edx
	addl	$3, %edx
	cmpb	%al, %dl
	jge	.L2775
.L2650:
	movl	20(%esp), %eax
	movl	$1, (%eax)
.L2640:
	.loc 1 1315 0
	subl	$12, %esp
	.cfi_def_cfa_offset 300
	movl	24(%esp), %eax
	pushl	-192(%eax)
	.cfi_def_cfa_offset 304
	call	freeaddrinfo
.LVL897:
	addl	$16, %esp
	.cfi_def_cfa_offset 288
	.loc 1 1235 0
	leal	32(%esp), %eax
	cmpl	16(%esp), %eax
	jne	.L2776
	movl	$0, 536870912(%ebp)
	movl	$0, 536870916(%ebp)
	movl	$0, 536870920(%ebp)
	movl	$0, 536870924(%ebp)
	movl	$0, 536870928(%ebp)
	movl	$0, 536870936(%ebp)
.L2610:
	.loc 1 1365 0
	addl	$268, %esp
	.cfi_remember_state
	.cfi_def_cfa_offset 20
	popl	%ebx
	.cfi_restore 3
	.cfi_def_cfa_offset 16
	popl	%esi
	.cfi_restore 6
	.cfi_def_cfa_offset 12
	popl	%edi
	.cfi_restore 7
	.cfi_def_cfa_offset 8
	popl	%ebp
	.cfi_restore 5
	.cfi_def_cfa_offset 4
	ret
.LVL898:
.L2766:
	.cfi_restore_state
	.loc 1 1281 0
	movl	(%esp), %eax
.LVL899:
.L2618:
	.loc 1 1282 0
	movl	288(%esp), %edx
	shrl	$3, %edx
	movzbl	536870912(%edx), %edx
	testb	%dl, %dl
	je	.L2626
	movl	288(%esp), %ecx
	andl	$7, %ecx
	addl	$3, %ecx
	cmpb	%dl, %cl
	jge	.L2777
.L2626:
	movl	288(%esp), %esi
	movl	%eax, (%esp)
	movl	$0, (%esi)
	jmp	.L2627
.L2771:
	.loc 1 1299 0
	movl	20(%esp), %edx
	movl	%edx, %eax
	shrl	$3, %eax
	movzbl	536870912(%eax), %eax
	testb	%al, %al
	je	.L2639
	andl	$7, %edx
	addl	$3, %edx
	cmpb	%al, %dl
	jge	.L2778
.L2639:
	movl	20(%esp), %eax
	movl	$0, (%eax)
	jmp	.L2640
.LVL900:
.L2761:
	.loc 1 1254 0
	subl	$12, %esp
	.cfi_def_cfa_offset 300
	pushl	%eax
	.cfi_def_cfa_offset 304
	call	gai_strerror
.LVL901:
	pushl	%eax
	.cfi_def_cfa_offset 308
	pushl	hostname
	.cfi_def_cfa_offset 312
	pushl	$.LC135
	.cfi_def_cfa_offset 316
	pushl	$2
	.cfi_def_cfa_offset 320
	call	syslog
.LVL902:
	.loc 1 1257 0
	addl	$20, %esp
	.cfi_def_cfa_offset 300
	pushl	%ebx
	.cfi_def_cfa_offset 304
	call	gai_strerror
.LVL903:
	movl	$stderr, %edx
	addl	$16, %esp
	.cfi_def_cfa_offset 288
	movl	hostname, %esi
	movl	%edx, %ecx
	movl	argv0, %ebx
.LVL904:
	shrl	$3, %ecx
	movzbl	536870912(%ecx), %ecx
	testb	%cl, %cl
	je	.L2617
	andl	$7, %edx
	addl	$3, %edx
	cmpb	%cl, %dl
	jge	.L2779
.L2617:
	subl	$12, %esp
	.cfi_def_cfa_offset 300
	pushl	%eax
	.cfi_def_cfa_offset 304
	pushl	%esi
	.cfi_def_cfa_offset 308
	pushl	%ebx
	.cfi_def_cfa_offset 312
	pushl	$.LC136
	.cfi_def_cfa_offset 316
	pushl	stderr
	.cfi_def_cfa_offset 320
	call	fprintf
.LVL905:
.L2758:
	.loc 1 1291 0
	addl	$32, %esp
	.cfi_def_cfa_offset 288
	call	__asan_handle_no_return
.LVL906:
	subl	$12, %esp
	.cfi_def_cfa_offset 300
	pushl	$1
	.cfi_def_cfa_offset 304
	call	exit
.LVL907:
.L2779:
	.cfi_def_cfa_offset 288
	.loc 1 1257 0
	subl	$12, %esp
	.cfi_remember_state
	.cfi_def_cfa_offset 300
	pushl	$stderr
	.cfi_def_cfa_offset 304
	call	__asan_report_load4
.LVL908:
.L2651:
	.cfi_restore_state
	.loc 1 1247 0
	pushl	%ebx
	.cfi_remember_state
	.cfi_def_cfa_offset 292
	pushl	%ebx
	.cfi_def_cfa_offset 296
	pushl	$32
	.cfi_def_cfa_offset 300
	pushl	%edx
	.cfi_def_cfa_offset 304
	call	__asan_report_store_n
.LVL909:
.L2760:
	.cfi_restore_state
	.loc 1 1235 0
	pushl	%esi
	.cfi_def_cfa_offset 292
	pushl	%esi
	.cfi_def_cfa_offset 296
	pushl	24(%esp)
	.cfi_def_cfa_offset 300
	pushl	$224
	.cfi_def_cfa_offset 304
	call	__asan_stack_malloc_2
.LVL910:
	addl	$16, %esp
	.cfi_def_cfa_offset 288
	movl	%eax, 16(%esp)
	jmp	.L2608
.LVL911:
.L2778:
	.loc 1 1299 0
	subl	$12, %esp
	.cfi_remember_state
	.cfi_def_cfa_offset 300
	pushl	32(%esp)
	.cfi_def_cfa_offset 304
	call	__asan_report_store4
.LVL912:
.L2777:
	.cfi_restore_state
	.loc 1 1282 0
	subl	$12, %esp
	.cfi_remember_state
	.cfi_def_cfa_offset 300
	pushl	300(%esp)
	.cfi_def_cfa_offset 304
	call	__asan_report_store4
.LVL913:
.L2776:
	.cfi_restore_state
	.loc 1 1235 0
	movl	16(%esp), %eax
	movl	$1172321806, (%eax)
	movl	$-168430091, 536870912(%ebp)
	movl	$-168430091, 536870916(%ebp)
	movl	$-168430091, 536870920(%ebp)
	movl	$-168430091, 536870924(%ebp)
	movl	$-168430091, 536870928(%ebp)
	movl	$-168430091, 536870932(%ebp)
	movl	$-168430091, 536870936(%ebp)
	jmp	.L2610
.L2775:
	.loc 1 1312 0
	subl	$12, %esp
	.cfi_remember_state
	.cfi_def_cfa_offset 300
	pushl	32(%esp)
	.cfi_def_cfa_offset 304
	call	__asan_report_store4
.LVL914:
.L2655:
	.cfi_restore_state
	.loc 1 1311 0
	pushl	%ebx
	.cfi_remember_state
	.cfi_def_cfa_offset 292
	pushl	%ebx
	.cfi_def_cfa_offset 296
	pushl	%eax
	.cfi_def_cfa_offset 300
	pushl	%ecx
	.cfi_def_cfa_offset 304
	call	__asan_report_load_n
.LVL915:
.L2774:
	.cfi_restore_state
	subl	$12, %esp
	.cfi_remember_state
	.cfi_def_cfa_offset 300
	pushl	%edx
	.cfi_def_cfa_offset 304
	call	__asan_report_load4
.LVL916:
.L2773:
	.cfi_restore_state
	subl	$12, %esp
	.cfi_remember_state
	.cfi_def_cfa_offset 300
	pushl	%edx
	.cfi_def_cfa_offset 304
	call	__asan_report_load4
.LVL917:
.L2654:
	.cfi_restore_state
	.loc 1 1310 0
	pushl	%esi
	.cfi_remember_state
	.cfi_def_cfa_offset 292
	pushl	%esi
	.cfi_def_cfa_offset 296
	pushl	$128
	.cfi_def_cfa_offset 300
	pushl	16(%esp)
	.cfi_def_cfa_offset 304
	call	__asan_report_store_n
.LVL918:
.L2772:
	.cfi_restore_state
	.loc 1 1302 0
	subl	$12, %esp
	.cfi_remember_state
	.cfi_def_cfa_offset 300
	pushl	%edx
	.cfi_def_cfa_offset 304
	call	__asan_report_load4
.LVL919:
.L2770:
	.cfi_restore_state
	.loc 1 1295 0
	subl	$12, %esp
	.cfi_remember_state
	.cfi_def_cfa_offset 300
	pushl	300(%esp)
	.cfi_def_cfa_offset 304
	call	__asan_report_store4
.LVL920:
.L2653:
	.cfi_restore_state
	.loc 1 1294 0
	pushl	%edx
	.cfi_remember_state
	.cfi_def_cfa_offset 292
	pushl	%edx
	.cfi_def_cfa_offset 296
	pushl	%eax
	.cfi_def_cfa_offset 300
	pushl	%ecx
	.cfi_def_cfa_offset 304
	call	__asan_report_load_n
.LVL921:
.L2769:
	.cfi_restore_state
	subl	$12, %esp
	.cfi_remember_state
	.cfi_def_cfa_offset 300
	pushl	36(%esp)
	.cfi_def_cfa_offset 304
	call	__asan_report_load4
.LVL922:
.L2768:
	.cfi_restore_state
	subl	$12, %esp
	.cfi_remember_state
	.cfi_def_cfa_offset 300
	pushl	%esi
	.cfi_def_cfa_offset 304
	call	__asan_report_load4
.LVL923:
.L2652:
	.cfi_restore_state
	.loc 1 1293 0
	pushl	%ecx
	.cfi_remember_state
	.cfi_def_cfa_offset 292
.LVL924:
	pushl	%ecx
	.cfi_def_cfa_offset 296
	pushl	$128
	.cfi_def_cfa_offset 300
	pushl	20(%esp)
	.cfi_def_cfa_offset 304
	call	__asan_report_store_n
.LVL925:
.L2759:
	.cfi_restore_state
	.loc 1 1287 0
	subl	$12, %esp
	.cfi_remember_state
	.cfi_def_cfa_offset 300
	pushl	%eax
	.cfi_def_cfa_offset 304
	pushl	$128
	.cfi_def_cfa_offset 308
	pushl	hostname
	.cfi_def_cfa_offset 312
	pushl	$.LC137
	.cfi_def_cfa_offset 316
	pushl	$2
	.cfi_def_cfa_offset 320
	call	syslog
.LVL926:
	jmp	.L2758
.LVL927:
.L2767:
	.cfi_restore_state
	.loc 1 1285 0
	subl	$12, %esp
	.cfi_remember_state
	.cfi_def_cfa_offset 300
.LVL928:
	pushl	%esi
	.cfi_def_cfa_offset 304
	call	__asan_report_load4
.LVL929:
.L2762:
	.cfi_restore_state
	.loc 1 1266 0
	subl	$12, %esp
	.cfi_remember_state
	.cfi_def_cfa_offset 300
.LVL930:
	pushl	%ecx
	.cfi_def_cfa_offset 304
	call	__asan_report_load4
.LVL931:
.L2764:
	.cfi_restore_state
	.loc 1 1268 0
	subl	$12, %esp
	.cfi_def_cfa_offset 300
.LVL932:
	pushl	%ecx
	.cfi_def_cfa_offset 304
	call	__asan_report_load4
.LVL933:
	.cfi_endproc
.LFE35:
	.size	lookup_hostname.constprop.1, .-lookup_hostname.constprop.1
	.section	.text.unlikely
.LCOLDE138:
	.text
.LHOTE138:
	.section	.rodata.str1.4
	.align 4
.LC139:
	.string	"6 32 4 5 gotv4 96 4 5 gotv6 160 8 2 tv 224 128 3 sa4 384 128 3 sa6 544 4097 3 cwd "
	.section	.rodata
	.align 32
.LC140:
	.string	"can't find any valid address"
	.zero	35
	.align 32
.LC141:
	.string	"%s: can't find any valid address\n"
	.zero	62
	.align 32
.LC142:
	.string	"unknown user - '%.80s'"
	.zero	41
	.align 32
.LC143:
	.string	"%s: unknown user - '%s'\n"
	.zero	39
	.align 32
.LC144:
	.string	"/dev/null"
	.zero	54
	.align 32
.LC145:
	.string	"logfile is not an absolute path, you may not be able to re-open it"
	.zero	61
	.align 32
.LC146:
	.string	"%s: logfile is not an absolute path, you may not be able to re-open it\n"
	.zero	56
	.align 32
.LC147:
	.string	"fchown logfile - %m"
	.zero	44
	.align 32
.LC148:
	.string	"fchown logfile"
	.zero	49
	.align 32
.LC149:
	.string	"chdir - %m"
	.zero	53
	.align 32
.LC150:
	.string	"chdir"
	.zero	58
	.align 32
.LC151:
	.string	"/"
	.zero	62
	.align 32
.LC152:
	.string	"daemon - %m"
	.zero	52
	.align 32
.LC153:
	.string	"w"
	.zero	62
	.align 32
.LC154:
	.string	"%d\n"
	.zero	60
	.align 32
.LC155:
	.string	"fdwatch initialization failure"
	.zero	33
	.align 32
.LC156:
	.string	"chroot - %m"
	.zero	52
	.align 32
.LC157:
	.string	"logfile is not within the chroot tree, you will not be able to re-open it"
	.zero	54
	.align 32
.LC158:
	.string	"%s: logfile is not within the chroot tree, you will not be able to re-open it\n"
	.zero	49
	.align 32
.LC159:
	.string	"chroot chdir - %m"
	.zero	46
	.align 32
.LC160:
	.string	"chroot chdir"
	.zero	51
	.align 32
.LC161:
	.string	"data_dir chdir - %m"
	.zero	44
	.align 32
.LC162:
	.string	"data_dir chdir"
	.zero	49
	.align 32
.LC163:
	.string	"tmr_create(occasional) failed"
	.zero	34
	.align 32
.LC164:
	.string	"tmr_create(idle) failed"
	.zero	40
	.align 32
.LC165:
	.string	"tmr_create(update_throttles) failed"
	.zero	60
	.align 32
.LC166:
	.string	"tmr_create(show_stats) failed"
	.zero	34
	.align 32
.LC167:
	.string	"setgroups - %m"
	.zero	49
	.align 32
.LC168:
	.string	"setgid - %m"
	.zero	52
	.align 32
.LC169:
	.string	"initgroups - %m"
	.zero	48
	.align 32
.LC170:
	.string	"setuid - %m"
	.zero	52
	.align 32
.LC171:
	.string	"started as root without requesting chroot(), warning only"
	.zero	38
	.align 32
.LC172:
	.string	"out of memory allocating a connecttab"
	.zero	58
	.align 32
.LC173:
	.string	"fdwatch - %m"
	.zero	51
	.section	.text.unlikely
.LCOLDB174:
	.section	.text.startup,"ax",@progbits
.LHOTB174:
	.p2align 4,,15
	.globl	main
	.type	main, @function
main:
.LASANPC7:
.LFB7:
	.loc 1 353 0
	.cfi_startproc
.LVL934:
	leal	4(%esp), %ecx
	.cfi_def_cfa 1, 0
	andl	$-16, %esp
	pushl	-4(%ecx)
	pushl	%ebp
	.cfi_escape 0x10,0x5,0x2,0x75,0
	movl	%esp, %ebp
	pushl	%edi
	pushl	%esi
	pushl	%ebx
	pushl	%ecx
	.cfi_escape 0xf,0x3,0x75,0x70,0x6
	.cfi_escape 0x10,0x7,0x2,0x75,0x7c
	.cfi_escape 0x10,0x6,0x2,0x75,0x78
	.cfi_escape 0x10,0x3,0x2,0x75,0x74
	leal	-4728(%ebp), %eax
	subl	$4760, %esp
	movl	(%ecx), %ebx
	movl	4(%ecx), %esi
	movl	__asan_option_detect_stack_use_after_return, %ecx
	testl	%ecx, %ecx
	jne	.L3166
.L2780:
.LVL935:
	.loc 1 353 0
	leal	4704(%eax), %edi
	movl	%edi, -4736(%ebp)
	movl	$1102416563, (%eax)
	movl	$.LC139, 4(%eax)
	movl	$.LASANPC7, 8(%eax)
	shrl	$3, %eax
	movl	$-235802127, 536870912(%eax)
	movl	$-185273340, 536870916(%eax)
	movl	$-218959118, 536870920(%eax)
	movl	$-185273340, 536870924(%eax)
	movl	$-218959118, 536870928(%eax)
	movl	$-185273344, 536870932(%eax)
	movl	$-218959118, 536870936(%eax)
	movl	$-218959118, 536870956(%eax)
	movl	$-218959118, 536870976(%eax)
	movl	$-185273343, 536871492(%eax)
	movl	$-202116109, 536871496(%eax)
	.loc 1 370 0
	movl	%esi, %eax
	shrl	$3, %eax
	movzbl	536870912(%eax), %eax
	testb	%al, %al
	je	.L2786
	movl	%esi, %edx
	andl	$7, %edx
	addl	$3, %edx
	cmpb	%al, %dl
	jge	.L3167
.L2786:
	movl	(%esi), %edi
	.loc 1 372 0
	subl	$8, %esp
	pushl	$47
	pushl	%edi
	.loc 1 370 0
	movl	%edi, argv0
	.loc 1 372 0
	call	strrchr
.LVL936:
	.loc 1 374 0
	leal	1(%eax), %edx
	.loc 1 372 0
	addl	$12, %esp
.LVL937:
	.loc 1 374 0
	testl	%eax, %eax
	.loc 1 377 0
	pushl	$24
	pushl	$9
	.loc 1 374 0
	cmovne	%edx, %edi
.LVL938:
	.loc 1 377 0
	pushl	%edi
	call	openlog
.LVL939:
	.loc 1 380 0
	movl	%esi, %edx
	movl	%ebx, %eax
	call	parse_args
.LVL940:
	.loc 1 383 0
	call	tzset
.LVL941:
	.loc 1 386 0
	movl	-4736(%ebp), %esi
	movl	%esi, %eax
	leal	-4320(%esi), %edi
.LVL942:
	leal	-4672(%esi), %edx
	subl	$4480, %eax
	movl	%eax, %ebx
	movl	%eax, -4744(%ebp)
	leal	-4608(%esi), %eax
	movl	%edi, %ecx
	movl	%edi, -4740(%ebp)
	movl	%eax, (%esp)
	movl	%ebx, %eax
	call	lookup_hostname.constprop.1
.LVL943:
	.loc 1 387 0
	movl	-4672(%esi), %eax
	addl	$16, %esp
	testl	%eax, %eax
	jne	.L2788
	.loc 1 387 0 is_stmt 0 discriminator 1
	movl	-4736(%ebp), %eax
	cmpl	$0, -4608(%eax)
	je	.L3168
.L2788:
	.loc 1 398 0 is_stmt 1
	movl	throttlefile, %eax
	.loc 1 395 0
	movl	$0, numthrottles
	.loc 1 396 0
	movl	$0, maxthrottles
	.loc 1 397 0
	movl	$0, throttles
	.loc 1 398 0
	testl	%eax, %eax
	je	.L2790
	.loc 1 399 0
	call	read_throttlefile
.LVL944:
.L2790:
	.loc 1 404 0
	call	getuid
.LVL945:
	testl	%eax, %eax
	.loc 1 357 0
	movl	$32767, -4748(%ebp)
	.loc 1 356 0
	movl	$32767, -4752(%ebp)
	.loc 1 404 0
	je	.L3169
.LVL946:
.L2791:
	.loc 1 418 0
	movl	logfile, %ebx
	testl	%ebx, %ebx
	je	.L2900
	.loc 1 420 0
	movl	$.LC144, %edi
	movl	$10, %ecx
	movl	%ebx, %esi
	repz; cmpsb
	jne	.L2797
	.loc 1 422 0
	movl	$1, no_log
.LVL947:
	.loc 1 423 0
	movl	$0, -4732(%ebp)
.LVL948:
.L2796:
	.loc 1 460 0
	movl	dir, %eax
	testl	%eax, %eax
	je	.L2805
	.loc 1 462 0
	subl	$12, %esp
	pushl	%eax
	call	chdir
.LVL949:
	addl	$16, %esp
	testl	%eax, %eax
	js	.L3170
.L2805:
	.loc 1 486 0
	movl	-4736(%ebp), %eax
	subl	$8, %esp
	pushl	$4096
	leal	-4160(%eax), %esi
	pushl	%esi
	call	getcwd
.LVL950:
	.loc 1 487 0
	movl	%esi, %eax
.L2806:
	movl	(%eax), %ecx
	addl	$4, %eax
	leal	-16843009(%ecx), %edx
	notl	%ecx
	andl	%ecx, %edx
	andl	$-2139062144, %edx
	je	.L2806
	movl	%edx, %ecx
	shrl	$16, %ecx
	testl	$32896, %edx
	cmove	%ecx, %edx
	leal	2(%eax), %ecx
	cmove	%ecx, %eax
	addb	%dl, %dl
	movl	%esi, %edx
	sbbl	$3, %eax
	shrl	$3, %edx
	addl	$16, %esp
	movzbl	536870912(%edx), %edx
	subl	%esi, %eax
	testb	%dl, %dl
	je	.L2808
	movl	%esi, %ecx
	andl	$7, %ecx
	cmpb	%cl, %dl
	jle	.L3171
.L2808:
	leal	(%esi,%eax), %edx
	movl	%edx, %ecx
	shrl	$3, %ecx
	movzbl	536870912(%ecx), %ecx
	testb	%cl, %cl
	je	.L2809
	movl	%edx, %ebx
	andl	$7, %ebx
	cmpb	%bl, %cl
	jle	.L3172
.L2809:
	leal	-1(%eax), %edx
	leal	(%esi,%edx), %edi
	movl	%edi, %ebx
	movl	%edi, -4756(%ebp)
	shrl	$3, %ebx
	movzbl	536870912(%ebx), %ebx
	testb	%bl, %bl
	je	.L2810
	andl	$7, %edi
	movl	%edi, %ecx
	cmpb	%cl, %bl
	jle	.L3173
.L2810:
	movl	-4736(%ebp), %edi
	cmpb	$47, -4160(%edx,%edi)
	je	.L2811
	.loc 1 488 0
	movl	$.LC151, %ecx
	addl	%esi, %eax
	movl	$.LC151+1, %ebx
	movl	%ecx, %edx
	movl	%eax, -4756(%ebp)
	shrl	$3, %ebx
	shrl	$3, %edx
	movzbl	536870912(%ebx), %ebx
	movzbl	536870912(%edx), %edi
	movl	%edi, %eax
	movl	%edi, %edx
	testb	%al, %al
	setne	-4760(%ebp)
	movzbl	-4760(%ebp), %eax
	andl	$7, %ecx
	cmpb	%cl, %dl
	setle	%cl
	testb	%cl, %al
	jne	.L2904
	testb	%bl, %bl
	movl	$.LC151+1, %edx
	setne	%cl
	andl	$7, %edx
	cmpb	%dl, %bl
	setle	%dl
	testb	%dl, %cl
	jne	.L2904
	movl	-4756(%ebp), %edi
	movl	%edi, %edx
	shrl	$3, %edx
	movzbl	536870912(%edx), %ebx
	leal	1(%edi), %edx
	movl	%edx, %ecx
	movl	%edx, -4760(%ebp)
	shrl	$3, %ecx
	testb	%bl, %bl
	movzbl	536870912(%ecx), %ecx
	setne	-4761(%ebp)
	andl	$7, %edi
	movzbl	-4761(%ebp), %eax
	movl	%edi, %edx
	cmpb	%dl, %bl
	setle	%bl
	testb	%bl, %al
	jne	.L2905
	movl	-4760(%ebp), %edx
	testb	%cl, %cl
	setne	%bl
	andl	$7, %edx
	cmpb	%dl, %cl
	setle	%dl
	testb	%dl, %bl
	jne	.L2905
	movl	-4756(%ebp), %eax
	movw	$47, (%eax)
.L2811:
	.loc 1 490 0
	movl	debug, %eax
	testl	%eax, %eax
	jne	.L2816
	.loc 1 495 0
	movl	$stdin, %eax
	movl	%eax, %edx
	shrl	$3, %edx
	movzbl	536870912(%edx), %edx
	testb	%dl, %dl
	je	.L2817
	andl	$7, %eax
	addl	$3, %eax
	cmpb	%dl, %al
	jge	.L3174
.L2817:
	subl	$12, %esp
	pushl	stdin
	call	fclose
.LVL951:
	.loc 1 496 0
	movl	$stdout, %eax
	addl	$16, %esp
	movl	%eax, %edx
	shrl	$3, %edx
	movzbl	536870912(%edx), %edx
	testb	%dl, %dl
	je	.L2818
	andl	$7, %eax
	addl	$3, %eax
	cmpb	%dl, %al
	jge	.L3175
.L2818:
	movl	stdout, %eax
	cmpl	%eax, -4732(%ebp)
	je	.L2819
	.loc 1 497 0
	subl	$12, %esp
	pushl	%eax
	call	fclose
.LVL952:
	addl	$16, %esp
.L2819:
	.loc 1 498 0
	movl	$stderr, %eax
	movl	%eax, %edx
	shrl	$3, %edx
	movzbl	536870912(%edx), %edx
	testb	%dl, %dl
	je	.L2820
	andl	$7, %eax
	addl	$3, %eax
	cmpb	%dl, %al
	jge	.L3176
.L2820:
	subl	$12, %esp
	pushl	stderr
	call	fclose
.LVL953:
	.loc 1 502 0
	popl	%edi
	popl	%eax
	pushl	$1
	pushl	$1
	call	daemon
.LVL954:
	addl	$16, %esp
	testl	%eax, %eax
	js	.L3177
.L2821:
	.loc 1 533 0
	movl	pidfile, %eax
	testl	%eax, %eax
	je	.L2822
.LBB15:
	.loc 1 536 0
	pushl	%ebx
.LVL955:
	pushl	%ebx
	pushl	$.LC153
	pushl	%eax
	call	fopen
.LVL956:
	.loc 1 537 0
	addl	$16, %esp
	testl	%eax, %eax
	.loc 1 536 0
	movl	%eax, %ebx
.LVL957:
	.loc 1 537 0
	je	.L3178
	.loc 1 542 0
	call	getpid
.LVL958:
	pushl	%edx
	pushl	%eax
	pushl	$.LC154
	pushl	%ebx
	call	fprintf
.LVL959:
	.loc 1 543 0
	movl	%ebx, (%esp)
	call	fclose
.LVL960:
	addl	$16, %esp
.LVL961:
.L2822:
.LBE15:
	.loc 1 549 0
	call	fdwatch_get_nfiles
.LVL962:
	.loc 1 550 0
	testl	%eax, %eax
	.loc 1 549 0
	movl	%eax, max_connects
	.loc 1 550 0
	js	.L3179
	.loc 1 555 0
	subl	$10, %eax
	.loc 1 558 0
	cmpl	$0, do_chroot
	.loc 1 555 0
	movl	%eax, max_connects
	.loc 1 558 0
	jne	.L3180
.L2825:
	.loc 1 598 0
	movl	data_dir, %eax
	testl	%eax, %eax
	je	.L2836
	.loc 1 600 0
	subl	$12, %esp
	pushl	%eax
	call	chdir
.LVL963:
	addl	$16, %esp
	testl	%eax, %eax
	js	.L3181
.L2836:
	.loc 1 610 0
	pushl	%eax
	pushl	%eax
	pushl	$handle_term
	pushl	$15
	call	sigset
.LVL964:
	.loc 1 611 0
	popl	%eax
	popl	%edx
	pushl	$handle_term
	pushl	$2
	call	sigset
.LVL965:
	.loc 1 612 0
	popl	%ecx
	popl	%ebx
	pushl	$handle_chld
	pushl	$17
	call	sigset
.LVL966:
	.loc 1 613 0
	popl	%edi
	popl	%eax
	pushl	$1
	pushl	$13
	call	sigset
.LVL967:
	.loc 1 614 0
	popl	%eax
	popl	%edx
	pushl	$handle_hup
	pushl	$1
	call	sigset
.LVL968:
	.loc 1 615 0
	popl	%ecx
	popl	%ebx
	pushl	$handle_usr1
	pushl	$10
	call	sigset
.LVL969:
	.loc 1 616 0
	popl	%edi
	popl	%eax
	pushl	$handle_usr2
	pushl	$12
	call	sigset
.LVL970:
	.loc 1 617 0
	popl	%eax
	popl	%edx
	pushl	$handle_alrm
	pushl	$14
	call	sigset
.LVL971:
	.loc 1 631 0
	movl	$360, (%esp)
	.loc 1 628 0
	movl	$0, got_hup
	.loc 1 629 0
	movl	$0, got_usr1
	.loc 1 630 0
	movl	$0, watchdog_flag
	.loc 1 631 0
	call	alarm
.LVL972:
	.loc 1 634 0
	call	tmr_init
.LVL973:
	.loc 1 639 0
	popl	%ebx
	popl	%edi
	movl	-4736(%ebp), %edi
	xorl	%eax, %eax
	movl	-4740(%ebp), %edx
	movzwl	port, %ecx
	cmpl	$0, -4608(%edi)
	cmove	%eax, %edx
	cmpl	$0, -4672(%edi)
	pushl	no_empty_referers
	cmovne	-4744(%ebp), %eax
	pushl	local_pattern
	pushl	url_pattern
	pushl	do_global_passwd
	pushl	do_vhost
	pushl	no_symlink_check
	pushl	-4732(%ebp)
	pushl	no_log
	pushl	%esi
	pushl	max_age
	pushl	p3p
	pushl	charset
	pushl	cgi_limit
	pushl	cgi_pattern
	pushl	%ecx
	pushl	%edx
	pushl	%eax
	pushl	hostname
	call	httpd_initialize
.LVL974:
	.loc 1 645 0
	addl	$80, %esp
	testl	%eax, %eax
	.loc 1 639 0
	movl	%eax, hs
	.loc 1 645 0
	je	.L3182
	.loc 1 649 0
	subl	$12, %esp
	pushl	$1
	pushl	$120000
	pushl	JunkClientData
	pushl	$occasional
	pushl	$0
	call	tmr_create
.LVL975:
	addl	$32, %esp
	testl	%eax, %eax
	je	.L3183
	.loc 1 655 0
	subl	$12, %esp
	pushl	$1
	pushl	$5000
	pushl	JunkClientData
	pushl	$idle
	pushl	$0
	call	tmr_create
.LVL976:
	addl	$32, %esp
	testl	%eax, %eax
	je	.L3184
	.loc 1 660 0
	cmpl	$0, numthrottles
	jle	.L2842
	.loc 1 663 0
	subl	$12, %esp
	pushl	$1
	pushl	$2000
	pushl	JunkClientData
	pushl	$update_throttles
	pushl	$0
	call	tmr_create
.LVL977:
	addl	$32, %esp
	testl	%eax, %eax
	je	.L3185
.L2842:
	.loc 1 671 0
	subl	$12, %esp
	pushl	$1
	pushl	$3600000
	pushl	JunkClientData
	pushl	$show_stats
	pushl	$0
	call	tmr_create
.LVL978:
	addl	$32, %esp
	testl	%eax, %eax
	je	.L3186
	.loc 1 677 0
	subl	$12, %esp
	pushl	$0
	call	time
.LVL979:
	.loc 1 678 0
	movl	$0, stats_connections
	.loc 1 677 0
	movl	%eax, stats_time
	movl	%eax, start_time
	.loc 1 679 0
	movl	$0, stats_bytes
	.loc 1 680 0
	movl	$0, stats_simultaneous
	.loc 1 683 0
	call	getuid
.LVL980:
	addl	$16, %esp
	testl	%eax, %eax
	je	.L3187
.L2845:
	.loc 1 718 0
	movl	max_connects, %eax
	subl	$12, %esp
	movl	%eax, %esi
	imull	$96, %eax, %eax
	pushl	%eax
	movl	%eax, -4740(%ebp)
	call	malloc
.LVL981:
	.loc 1 719 0
	addl	$16, %esp
	testl	%eax, %eax
	.loc 1 718 0
	movl	%eax, -4744(%ebp)
	movl	%eax, connects
	.loc 1 719 0
	je	.L2851
.LVL982:
	.loc 1 724 0 discriminator 1
	xorl	%edx, %edx
	testl	%esi, %esi
	jle	.L2860
	movl	%edx, -4732(%ebp)
.LVL983:
	.p2align 4,,10
	.p2align 3
.L3076:
	.loc 1 726 0 discriminator 3
	movl	%eax, %ecx
	shrl	$3, %ecx
	movzbl	536870912(%ecx), %ecx
	testb	%cl, %cl
	je	.L2856
	movl	%eax, %ebx
	andl	$7, %ebx
	addl	$3, %ebx
	cmpb	%cl, %bl
	jge	.L3188
.L2856:
	leal	4(%eax), %ecx
	.loc 1 727 0 discriminator 3
	addl	$1, -4732(%ebp)
.LVL984:
	.loc 1 726 0 discriminator 3
	movl	$0, (%eax)
	.loc 1 727 0 discriminator 3
	movl	%ecx, %ebx
	shrl	$3, %ebx
	movzbl	536870912(%ebx), %ebx
	testb	%bl, %bl
	je	.L2857
	movl	%ecx, %edi
	andl	$7, %edi
	addl	$3, %edi
	movl	%edi, %edx
	cmpb	%bl, %dl
	jge	.L3189
.L2857:
	leal	8(%eax), %ecx
	movl	-4732(%ebp), %edi
	.loc 1 728 0 discriminator 3
	movl	%ecx, %ebx
	shrl	$3, %ebx
	.loc 1 727 0 discriminator 3
	movl	%edi, 4(%eax)
	.loc 1 728 0 discriminator 3
	movzbl	536870912(%ebx), %ebx
	testb	%bl, %bl
	je	.L2858
	movl	%ecx, %edi
	andl	$7, %edi
	addl	$3, %edi
	movl	%edi, %edx
	cmpb	%bl, %dl
	jge	.L3190
.L2858:
	movl	$0, 8(%eax)
.LVL985:
	addl	$96, %eax
	.loc 1 724 0 discriminator 3
	cmpl	%esi, -4732(%ebp)
	jne	.L3076
.LVL986:
.L2860:
	.loc 1 730 0
	movl	-4744(%ebp), %eax
	movl	-4740(%ebp), %esi
	leal	-96(%eax,%esi), %eax
	leal	4(%eax), %edx
	movl	%edx, %ecx
	shrl	$3, %ecx
	movzbl	536870912(%ecx), %ecx
	testb	%cl, %cl
	je	.L2853
	movl	%edx, %ebx
	andl	$7, %ebx
	addl	$3, %ebx
	cmpb	%cl, %bl
	jge	.L3191
.L2853:
	movl	$-1, 4(%eax)
	.loc 1 735 0
	movl	hs, %eax
	.loc 1 731 0
	movl	$0, first_free_connect
	.loc 1 732 0
	movl	$0, num_connects
	.loc 1 733 0
	movl	$0, httpd_conn_count
	.loc 1 735 0
	testl	%eax, %eax
	je	.L2861
	.loc 1 737 0
	leal	40(%eax), %edx
	movl	%edx, %ecx
	shrl	$3, %ecx
	movzbl	536870912(%ecx), %ecx
	testb	%cl, %cl
	je	.L2862
	movl	%edx, %ebx
	andl	$7, %ebx
	addl	$3, %ebx
	cmpb	%cl, %bl
	jge	.L3192
.L2862:
	movl	40(%eax), %edx
	cmpl	$-1, %edx
	je	.L2863
	.loc 1 738 0
	pushl	%esi
	pushl	$0
	pushl	$0
	pushl	%edx
	call	fdwatch_add_fd
.LVL987:
	movl	hs, %eax
	addl	$16, %esp
.L2863:
	.loc 1 739 0
	leal	44(%eax), %edx
	movl	%edx, %ecx
	shrl	$3, %ecx
	movzbl	536870912(%ecx), %ecx
	testb	%cl, %cl
	je	.L2864
	movl	%edx, %ebx
	andl	$7, %ebx
	addl	$3, %ebx
	cmpb	%cl, %bl
	jge	.L3193
.L2864:
	movl	44(%eax), %eax
	cmpl	$-1, %eax
	je	.L2861
	.loc 1 740 0
	pushl	%ebx
	pushl	$0
	pushl	$0
	pushl	%eax
	call	fdwatch_add_fd
.LVL988:
	addl	$16, %esp
.L2861:
	.loc 1 744 0
	movl	-4736(%ebp), %esi
	subl	$12, %esp
	subl	$4544, %esi
	pushl	%esi
	call	tmr_prepare_timeval
.LVL989:
	.loc 1 745 0
	addl	$16, %esp
	.p2align 4,,10
	.p2align 3
.L2865:
	movl	terminate, %edx
	testl	%edx, %edx
	je	.L2898
	.loc 1 745 0 is_stmt 0 discriminator 1
	cmpl	$0, num_connects
	jle	.L3194
.L2898:
	.loc 1 748 0 is_stmt 1
	movl	got_hup, %eax
	testl	%eax, %eax
	jne	.L3195
.L2866:
	.loc 1 755 0
	subl	$12, %esp
	pushl	%esi
	call	tmr_mstimeout
.LVL990:
	movl	%eax, (%esp)
	call	fdwatch
.LVL991:
	.loc 1 756 0
	addl	$16, %esp
	testl	%eax, %eax
	.loc 1 755 0
	movl	%eax, %ebx
.LVL992:
	.loc 1 756 0
	js	.L3196
	.loc 1 763 0
	subl	$12, %esp
	pushl	%esi
	call	tmr_prepare_timeval
.LVL993:
	.loc 1 765 0
	addl	$16, %esp
	testl	%ebx, %ebx
	je	.L3197
	.loc 1 773 0
	movl	hs, %eax
	testl	%eax, %eax
	je	.L2884
	.loc 1 773 0 is_stmt 0 discriminator 1
	leal	44(%eax), %edx
	movl	%edx, %ecx
	shrl	$3, %ecx
	movzbl	536870912(%ecx), %ecx
	testb	%cl, %cl
	je	.L2875
	movl	%edx, %ebx
.LVL994:
	andl	$7, %ebx
	addl	$3, %ebx
	cmpb	%cl, %bl
	jge	.L3198
.L2875:
	movl	44(%eax), %edx
	cmpl	$-1, %edx
	je	.L2876
	.loc 1 774 0 is_stmt 1 discriminator 2
	subl	$12, %esp
	pushl	%edx
	call	fdwatch_check_fd
.LVL995:
	.loc 1 773 0 discriminator 2
	addl	$16, %esp
	testl	%eax, %eax
	jne	.L2877
.L2881:
	.loc 1 783 0
	movl	hs, %eax
	testl	%eax, %eax
	je	.L2884
.L2876:
	.loc 1 783 0 is_stmt 0 discriminator 1
	leal	40(%eax), %edx
	movl	%edx, %ecx
	shrl	$3, %ecx
	movzbl	536870912(%ecx), %ecx
	testb	%cl, %cl
	je	.L2882
	movl	%edx, %ebx
	andl	$7, %ebx
	addl	$3, %ebx
	cmpb	%cl, %bl
	jge	.L3199
.L2882:
	movl	40(%eax), %eax
	cmpl	$-1, %eax
	je	.L2884
	.loc 1 784 0 is_stmt 1 discriminator 2
	subl	$12, %esp
	pushl	%eax
	call	fdwatch_check_fd
.LVL996:
	.loc 1 783 0 discriminator 2
	addl	$16, %esp
	testl	%eax, %eax
	jne	.L3200
	.p2align 4,,10
	.p2align 3
.L2884:
	.loc 1 795 0
	call	fdwatch_get_next_client_data
.LVL997:
	cmpl	$-1, %eax
	movl	%eax, %ebx
.LVL998:
	je	.L3201
	.loc 1 797 0
	testl	%ebx, %ebx
	je	.L2884
	.loc 1 799 0
	leal	8(%ebx), %eax
.LVL999:
	movl	%eax, %edx
	shrl	$3, %edx
	movzbl	536870912(%edx), %edx
	testb	%dl, %dl
	je	.L2885
	movl	%eax, %ecx
	andl	$7, %ecx
	addl	$3, %ecx
	cmpb	%dl, %cl
	jge	.L3202
.L2885:
	movl	8(%ebx), %ecx
.LVL1000:
	.loc 1 800 0
	leal	448(%ecx), %eax
	movl	%eax, %edx
	movl	%eax, -4732(%ebp)
	shrl	$3, %edx
	movzbl	536870912(%edx), %edx
	testb	%dl, %dl
	je	.L2886
	movl	%eax, %edi
	andl	$7, %edi
	addl	$3, %edi
	movl	%edi, %eax
	cmpb	%dl, %al
	jge	.L3203
.L2886:
	subl	$12, %esp
	pushl	448(%ecx)
	call	fdwatch_check_fd
.LVL1001:
	addl	$16, %esp
	testl	%eax, %eax
	je	.L3204
	.loc 1 804 0
	movl	%ebx, %eax
	shrl	$3, %eax
	movzbl	536870912(%eax), %eax
	testb	%al, %al
	je	.L2889
	movl	%ebx, %edx
	andl	$7, %edx
	addl	$3, %edx
	cmpb	%al, %dl
	jge	.L3205
.L2889:
	movl	(%ebx), %eax
	cmpl	$2, %eax
	je	.L2890
	cmpl	$4, %eax
	je	.L2891
	cmpl	$1, %eax
	jne	.L2884
	.loc 1 806 0
	movl	%esi, %edx
	movl	%ebx, %eax
	call	handle_read
.LVL1002:
	jmp	.L2884
.LVL1003:
.L2797:
	.loc 1 425 0
	pushl	%ecx
.LVL1004:
	pushl	%ecx
	pushl	$.LC99
	pushl	%ebx
	call	strcmp
.LVL1005:
	addl	$16, %esp
	testl	%eax, %eax
	jne	.L2798
	.loc 1 426 0
	movl	$stdout, %eax
	movl	%eax, %edx
	shrl	$3, %edx
	movzbl	536870912(%edx), %edx
	testb	%dl, %dl
	je	.L2799
	andl	$7, %eax
	addl	$3, %eax
	cmpb	%dl, %al
	jge	.L3206
.L2799:
	movl	stdout, %eax
	movl	%eax, -4732(%ebp)
.LVL1006:
	jmp	.L2796
.LVL1007:
.L2816:
	.loc 1 529 0
	call	setsid
.LVL1008:
	jmp	.L2821
.LVL1009:
.L3169:
	.loc 1 406 0
	subl	$12, %esp
	pushl	user
	call	getpwnam
.LVL1010:
	.loc 1 407 0
	addl	$16, %esp
	testl	%eax, %eax
	je	.L3207
	.loc 1 413 0
	leal	8(%eax), %edx
	movl	%edx, %ecx
	shrl	$3, %ecx
	movzbl	536870912(%ecx), %ecx
	testb	%cl, %cl
	je	.L2794
	movl	%edx, %ebx
	andl	$7, %ebx
	addl	$3, %ebx
	cmpb	%cl, %bl
	jge	.L3208
.L2794:
	.loc 1 414 0
	leal	12(%eax), %edx
	.loc 1 413 0
	movl	8(%eax), %esi
	.loc 1 414 0
	movl	%edx, %ecx
	shrl	$3, %ecx
	.loc 1 413 0
	movl	%esi, -4752(%ebp)
.LVL1011:
	.loc 1 414 0
	movzbl	536870912(%ecx), %ecx
	testb	%cl, %cl
	je	.L2795
	movl	%edx, %ebx
	andl	$7, %ebx
	addl	$3, %ebx
	cmpb	%cl, %bl
	jge	.L3209
.L2795:
	movl	12(%eax), %eax
.LVL1012:
	movl	%eax, -4748(%ebp)
.LVL1013:
	jmp	.L2791
.LVL1014:
.L3168:
	.loc 1 389 0
	pushl	%edi
	pushl	%edi
	pushl	$.LC140
	pushl	$3
	call	syslog
.LVL1015:
	.loc 1 390 0
	movl	$stderr, %eax
	addl	$16, %esp
	movl	argv0, %ecx
	movl	%eax, %edx
	shrl	$3, %edx
	movzbl	536870912(%edx), %edx
	testb	%dl, %dl
	je	.L2789
	andl	$7, %eax
	addl	$3, %eax
	cmpb	%dl, %al
	jge	.L3210
.L2789:
	pushl	%esi
	pushl	%ecx
	pushl	$.LC141
.L3164:
	.loc 1 410 0
	pushl	stderr
	call	fprintf
.LVL1016:
	.loc 1 411 0
	call	__asan_handle_no_return
.LVL1017:
	movl	$1, (%esp)
	call	exit
.LVL1018:
.L3187:
	.loc 1 686 0
	pushl	%edx
	pushl	%edx
	pushl	$0
	pushl	$0
	call	setgroups
.LVL1019:
	addl	$16, %esp
	testl	%eax, %eax
	js	.L3211
	.loc 1 692 0
	subl	$12, %esp
	pushl	-4748(%ebp)
	call	setgid
.LVL1020:
	addl	$16, %esp
	testl	%eax, %eax
	js	.L3212
	.loc 1 698 0
	pushl	%eax
	pushl	%eax
	pushl	-4748(%ebp)
	pushl	user
	call	initgroups
.LVL1021:
	addl	$16, %esp
	testl	%eax, %eax
	js	.L3213
.L2848:
	.loc 1 705 0
	subl	$12, %esp
	pushl	-4752(%ebp)
	call	setuid
.LVL1022:
	addl	$16, %esp
	testl	%eax, %eax
	js	.L3214
	.loc 1 711 0
	cmpl	$0, do_chroot
	jne	.L2845
	.loc 1 712 0
	pushl	%eax
	pushl	%eax
	pushl	$.LC171
	pushl	$4
	call	syslog
.LVL1023:
	addl	$16, %esp
	jmp	.L2845
.LVL1024:
.L3204:
	.loc 1 802 0
	movl	%esi, %edx
	movl	%ebx, %eax
	call	clear_connection
.LVL1025:
	jmp	.L2884
.LVL1026:
.L3196:
	.loc 1 758 0
	call	__errno_location
.LVL1027:
	movl	%eax, %edx
	shrl	$3, %edx
	movzbl	536870912(%edx), %edx
	testb	%dl, %dl
	je	.L2868
	movl	%eax, %ecx
	andl	$7, %ecx
	addl	$3, %ecx
	cmpb	%dl, %cl
	jge	.L3215
.L2868:
	movl	(%eax), %eax
	cmpl	$11, %eax
	je	.L2865
	cmpl	$4, %eax
	je	.L2865
	.loc 1 760 0
	pushl	%ecx
	pushl	%ecx
	pushl	$.LC173
	pushl	$3
	call	syslog
.LVL1028:
	.loc 1 761 0
	call	__asan_handle_no_return
.LVL1029:
	movl	$1, (%esp)
	call	exit
.LVL1030:
.L2891:
	.loc 1 808 0
	movl	%esi, %edx
	movl	%ebx, %eax
	call	handle_linger
.LVL1031:
	jmp	.L2884
.L2890:
	.loc 1 807 0
	movl	%esi, %edx
	movl	%ebx, %eax
	call	handle_send
.LVL1032:
	jmp	.L2884
.LVL1033:
.L3201:
	.loc 1 811 0
	subl	$12, %esp
	pushl	%esi
	call	tmr_run
.LVL1034:
	.loc 1 813 0
	movl	got_usr1, %eax
	addl	$16, %esp
	testl	%eax, %eax
	je	.L2865
	.loc 1 813 0 is_stmt 0 discriminator 1
	cmpl	$0, terminate
	jne	.L2865
	.loc 1 816 0 is_stmt 1
	movl	hs, %eax
	.loc 1 815 0
	movl	$1, terminate
	.loc 1 816 0
	testl	%eax, %eax
	je	.L2865
	.loc 1 818 0
	leal	40(%eax), %edx
	movl	%edx, %ecx
	shrl	$3, %ecx
	movzbl	536870912(%ecx), %ecx
	testb	%cl, %cl
	je	.L2894
	movl	%edx, %ebx
.LVL1035:
	andl	$7, %ebx
	addl	$3, %ebx
	cmpb	%cl, %bl
	jl	.L2894
	subl	$12, %esp
	pushl	%edx
	call	__asan_report_load4
.LVL1036:
.L2894:
	movl	40(%eax), %edx
	cmpl	$-1, %edx
	je	.L2895
	.loc 1 819 0
	subl	$12, %esp
	pushl	%edx
	call	fdwatch_del_fd
.LVL1037:
	movl	hs, %eax
	addl	$16, %esp
.L2895:
	.loc 1 820 0
	leal	44(%eax), %edx
	movl	%edx, %ecx
	shrl	$3, %ecx
	movzbl	536870912(%ecx), %ecx
	testb	%cl, %cl
	je	.L2896
	movl	%edx, %ebx
